Archive member included to satisfy reference by file (symbol)

/home/lodge/Allwinner/Orangepi-H616/external/cache/sources/arm-trusted-firmware-sunxi-mainline/master/build/sun50i_h616/debug/lib/libfdt.a(fdt.o)
                              /home/lodge/Allwinner/Orangepi-H616/external/cache/sources/arm-trusted-firmware-sunxi-mainline/master/build/sun50i_h616/debug/bl31/sunxi_bl31_setup.o (fdt_check_header)
/home/lodge/Allwinner/Orangepi-H616/external/cache/sources/arm-trusted-firmware-sunxi-mainline/master/build/sun50i_h616/debug/lib/libfdt.a(fdt_addresses.o)
                              /home/lodge/Allwinner/Orangepi-H616/external/cache/sources/arm-trusted-firmware-sunxi-mainline/master/build/sun50i_h616/debug/bl31/fdt_fixup.o (fdt_address_cells)
/home/lodge/Allwinner/Orangepi-H616/external/cache/sources/arm-trusted-firmware-sunxi-mainline/master/build/sun50i_h616/debug/lib/libfdt.a(fdt_ro.o)
                              /home/lodge/Allwinner/Orangepi-H616/external/cache/sources/arm-trusted-firmware-sunxi-mainline/master/build/sun50i_h616/debug/bl31/common.o (fdt_get_name)
/home/lodge/Allwinner/Orangepi-H616/external/cache/sources/arm-trusted-firmware-sunxi-mainline/master/build/sun50i_h616/debug/lib/libfdt.a(fdt_rw.o)
                              /home/lodge/Allwinner/Orangepi-H616/external/cache/sources/arm-trusted-firmware-sunxi-mainline/master/build/sun50i_h616/debug/bl31/fdt_fixup.o (fdt_setprop)
/home/lodge/Allwinner/Orangepi-H616/external/cache/sources/arm-trusted-firmware-sunxi-mainline/master/build/sun50i_h616/debug/lib/libfdt.a(fdt_wip.o)
                              /home/lodge/Allwinner/Orangepi-H616/external/cache/sources/arm-trusted-firmware-sunxi-mainline/master/build/sun50i_h616/debug/bl31/fdt_fixup.o (fdt_setprop_inplace_namelen_partial)
/home/lodge/Allwinner/Orangepi-H616/external/cache/sources/arm-trusted-firmware-sunxi-mainline/master/build/sun50i_h616/debug/lib/libc.a(assert.o)
                              /home/lodge/Allwinner/Orangepi-H616/external/cache/sources/arm-trusted-firmware-sunxi-mainline/master/build/sun50i_h616/debug/bl31/bl31_context_mgmt.o (__assert)
/home/lodge/Allwinner/Orangepi-H616/external/cache/sources/arm-trusted-firmware-sunxi-mainline/master/build/sun50i_h616/debug/lib/libc.a(memchr.o)
                              /home/lodge/Allwinner/Orangepi-H616/external/cache/sources/arm-trusted-firmware-sunxi-mainline/master/build/sun50i_h616/debug/lib/libfdt.a(fdt_ro.o) (memchr)
/home/lodge/Allwinner/Orangepi-H616/external/cache/sources/arm-trusted-firmware-sunxi-mainline/master/build/sun50i_h616/debug/lib/libc.a(memcmp.o)
                              /home/lodge/Allwinner/Orangepi-H616/external/cache/sources/arm-trusted-firmware-sunxi-mainline/master/build/sun50i_h616/debug/lib/libfdt.a(fdt.o) (memcmp)
/home/lodge/Allwinner/Orangepi-H616/external/cache/sources/arm-trusted-firmware-sunxi-mainline/master/build/sun50i_h616/debug/lib/libc.a(memcpy.o)
                              /home/lodge/Allwinner/Orangepi-H616/external/cache/sources/arm-trusted-firmware-sunxi-mainline/master/build/sun50i_h616/debug/bl31/context_mgmt.o (memcpy)
/home/lodge/Allwinner/Orangepi-H616/external/cache/sources/arm-trusted-firmware-sunxi-mainline/master/build/sun50i_h616/debug/lib/libc.a(memmove.o)
                              /home/lodge/Allwinner/Orangepi-H616/external/cache/sources/arm-trusted-firmware-sunxi-mainline/master/build/sun50i_h616/debug/bl31/xlat_tables_core.o (memmove)
/home/lodge/Allwinner/Orangepi-H616/external/cache/sources/arm-trusted-firmware-sunxi-mainline/master/build/sun50i_h616/debug/lib/libc.a(memset.o)
                              /home/lodge/Allwinner/Orangepi-H616/external/cache/sources/arm-trusted-firmware-sunxi-mainline/master/build/sun50i_h616/debug/bl31/runtime_svc.o (memset)
/home/lodge/Allwinner/Orangepi-H616/external/cache/sources/arm-trusted-firmware-sunxi-mainline/master/build/sun50i_h616/debug/lib/libc.a(printf.o)
                              /home/lodge/Allwinner/Orangepi-H616/external/cache/sources/arm-trusted-firmware-sunxi-mainline/master/build/sun50i_h616/debug/bl31/tf_log.o (vprintf)
/home/lodge/Allwinner/Orangepi-H616/external/cache/sources/arm-trusted-firmware-sunxi-mainline/master/build/sun50i_h616/debug/lib/libc.a(putchar.o)
                              /home/lodge/Allwinner/Orangepi-H616/external/cache/sources/arm-trusted-firmware-sunxi-mainline/master/build/sun50i_h616/debug/bl31/tf_log.o (putchar)
/home/lodge/Allwinner/Orangepi-H616/external/cache/sources/arm-trusted-firmware-sunxi-mainline/master/build/sun50i_h616/debug/lib/libc.a(snprintf.o)
                              /home/lodge/Allwinner/Orangepi-H616/external/cache/sources/arm-trusted-firmware-sunxi-mainline/master/build/sun50i_h616/debug/bl31/fdt_fixup.o (snprintf)
/home/lodge/Allwinner/Orangepi-H616/external/cache/sources/arm-trusted-firmware-sunxi-mainline/master/build/sun50i_h616/debug/lib/libc.a(strcmp.o)
                              /home/lodge/Allwinner/Orangepi-H616/external/cache/sources/arm-trusted-firmware-sunxi-mainline/master/build/sun50i_h616/debug/bl31/fdt_fixup.o (strcmp)
/home/lodge/Allwinner/Orangepi-H616/external/cache/sources/arm-trusted-firmware-sunxi-mainline/master/build/sun50i_h616/debug/lib/libc.a(strlen.o)
                              /home/lodge/Allwinner/Orangepi-H616/external/cache/sources/arm-trusted-firmware-sunxi-mainline/master/build/sun50i_h616/debug/bl31/fdt_fixup.o (strlen)
/home/lodge/Allwinner/Orangepi-H616/external/cache/sources/arm-trusted-firmware-sunxi-mainline/master/build/sun50i_h616/debug/lib/libc.a(strncmp.o)
                              /home/lodge/Allwinner/Orangepi-H616/external/cache/sources/arm-trusted-firmware-sunxi-mainline/master/build/sun50i_h616/debug/bl31/common.o (strncmp)
/home/lodge/Allwinner/Orangepi-H616/external/cache/sources/arm-trusted-firmware-sunxi-mainline/master/build/sun50i_h616/debug/lib/libc.a(strnlen.o)
                              /home/lodge/Allwinner/Orangepi-H616/external/cache/sources/arm-trusted-firmware-sunxi-mainline/master/build/sun50i_h616/debug/lib/libfdt.a(fdt_ro.o) (strnlen)
/home/lodge/Allwinner/Orangepi-H616/external/cache/sources/arm-trusted-firmware-sunxi-mainline/master/build/sun50i_h616/debug/lib/libc.a(strrchr.o)
                              /home/lodge/Allwinner/Orangepi-H616/external/cache/sources/arm-trusted-firmware-sunxi-mainline/master/build/sun50i_h616/debug/lib/libfdt.a(fdt_ro.o) (strrchr)

Discarded input sections

 .text          0x0000000000000000        0x0 /home/lodge/Allwinner/Orangepi-H616/external/cache/sources/arm-trusted-firmware-sunxi-mainline/master/build/sun50i_h616/debug/bl31/build_message.o
 .data          0x0000000000000000        0x0 /home/lodge/Allwinner/Orangepi-H616/external/cache/sources/arm-trusted-firmware-sunxi-mainline/master/build/sun50i_h616/debug/bl31/build_message.o
 .bss           0x0000000000000000        0x0 /home/lodge/Allwinner/Orangepi-H616/external/cache/sources/arm-trusted-firmware-sunxi-mainline/master/build/sun50i_h616/debug/bl31/build_message.o
 .text          0x0000000000000000        0x0 /home/lodge/Allwinner/Orangepi-H616/external/cache/sources/arm-trusted-firmware-sunxi-mainline/master/build/sun50i_h616/debug/bl31/bl31_context_mgmt.o
 .data          0x0000000000000000        0x0 /home/lodge/Allwinner/Orangepi-H616/external/cache/sources/arm-trusted-firmware-sunxi-mainline/master/build/sun50i_h616/debug/bl31/bl31_context_mgmt.o
 .bss           0x0000000000000000        0x0 /home/lodge/Allwinner/Orangepi-H616/external/cache/sources/arm-trusted-firmware-sunxi-mainline/master/build/sun50i_h616/debug/bl31/bl31_context_mgmt.o
 .rodata.get_cpu_context_index.part.0.str1.1
                0x0000000000000000       0x23 /home/lodge/Allwinner/Orangepi-H616/external/cache/sources/arm-trusted-firmware-sunxi-mainline/master/build/sun50i_h616/debug/bl31/bl31_context_mgmt.o
 .text.get_cpu_context_index.part.0
                0x0000000000000000       0x18 /home/lodge/Allwinner/Orangepi-H616/external/cache/sources/arm-trusted-firmware-sunxi-mainline/master/build/sun50i_h616/debug/bl31/bl31_context_mgmt.o
 .text.cm_set_context
                0x0000000000000000       0x2c /home/lodge/Allwinner/Orangepi-H616/external/cache/sources/arm-trusted-firmware-sunxi-mainline/master/build/sun50i_h616/debug/bl31/bl31_context_mgmt.o
 .eh_frame      0x0000000000000000       0xb8 /home/lodge/Allwinner/Orangepi-H616/external/cache/sources/arm-trusted-firmware-sunxi-mainline/master/build/sun50i_h616/debug/bl31/bl31_context_mgmt.o
 .text          0x0000000000000000        0x0 /home/lodge/Allwinner/Orangepi-H616/external/cache/sources/arm-trusted-firmware-sunxi-mainline/master/build/sun50i_h616/debug/bl31/bl31_main.o
 .data          0x0000000000000000        0x0 /home/lodge/Allwinner/Orangepi-H616/external/cache/sources/arm-trusted-firmware-sunxi-mainline/master/build/sun50i_h616/debug/bl31/bl31_main.o
 .bss           0x0000000000000000        0x0 /home/lodge/Allwinner/Orangepi-H616/external/cache/sources/arm-trusted-firmware-sunxi-mainline/master/build/sun50i_h616/debug/bl31/bl31_main.o
 .text.bl31_lib_init
                0x0000000000000000        0x4 /home/lodge/Allwinner/Orangepi-H616/external/cache/sources/arm-trusted-firmware-sunxi-mainline/master/build/sun50i_h616/debug/bl31/bl31_main.o
 .text.bl31_set_next_image_type
                0x0000000000000000       0x2c /home/lodge/Allwinner/Orangepi-H616/external/cache/sources/arm-trusted-firmware-sunxi-mainline/master/build/sun50i_h616/debug/bl31/bl31_main.o
 .text.bl31_get_next_image_type
                0x0000000000000000        0xc /home/lodge/Allwinner/Orangepi-H616/external/cache/sources/arm-trusted-firmware-sunxi-mainline/master/build/sun50i_h616/debug/bl31/bl31_main.o
 .text.bl31_register_bl32_init
                0x0000000000000000        0xc /home/lodge/Allwinner/Orangepi-H616/external/cache/sources/arm-trusted-firmware-sunxi-mainline/master/build/sun50i_h616/debug/bl31/bl31_main.o
 .eh_frame      0x0000000000000000      0x100 /home/lodge/Allwinner/Orangepi-H616/external/cache/sources/arm-trusted-firmware-sunxi-mainline/master/build/sun50i_h616/debug/bl31/bl31_main.o
 .text          0x0000000000000000        0x0 /home/lodge/Allwinner/Orangepi-H616/external/cache/sources/arm-trusted-firmware-sunxi-mainline/master/build/sun50i_h616/debug/bl31/interrupt_mgmt.o
 .data          0x0000000000000000        0x0 /home/lodge/Allwinner/Orangepi-H616/external/cache/sources/arm-trusted-firmware-sunxi-mainline/master/build/sun50i_h616/debug/bl31/interrupt_mgmt.o
 .bss           0x0000000000000000        0x0 /home/lodge/Allwinner/Orangepi-H616/external/cache/sources/arm-trusted-firmware-sunxi-mainline/master/build/sun50i_h616/debug/bl31/interrupt_mgmt.o
 .text.set_scr_el3_from_rm
                0x0000000000000000       0x84 /home/lodge/Allwinner/Orangepi-H616/external/cache/sources/arm-trusted-firmware-sunxi-mainline/master/build/sun50i_h616/debug/bl31/interrupt_mgmt.o
 .text.set_routing_model
                0x0000000000000000       0x98 /home/lodge/Allwinner/Orangepi-H616/external/cache/sources/arm-trusted-firmware-sunxi-mainline/master/build/sun50i_h616/debug/bl31/interrupt_mgmt.o
 .text.disable_intr_rm_local
                0x0000000000000000       0x58 /home/lodge/Allwinner/Orangepi-H616/external/cache/sources/arm-trusted-firmware-sunxi-mainline/master/build/sun50i_h616/debug/bl31/interrupt_mgmt.o
 .text.enable_intr_rm_local
                0x0000000000000000       0x68 /home/lodge/Allwinner/Orangepi-H616/external/cache/sources/arm-trusted-firmware-sunxi-mainline/master/build/sun50i_h616/debug/bl31/interrupt_mgmt.o
 .text.register_interrupt_type_handler
                0x0000000000000000       0x68 /home/lodge/Allwinner/Orangepi-H616/external/cache/sources/arm-trusted-firmware-sunxi-mainline/master/build/sun50i_h616/debug/bl31/interrupt_mgmt.o
 .eh_frame      0x0000000000000000      0x120 /home/lodge/Allwinner/Orangepi-H616/external/cache/sources/arm-trusted-firmware-sunxi-mainline/master/build/sun50i_h616/debug/bl31/interrupt_mgmt.o
 .text          0x0000000000000000        0x0 /home/lodge/Allwinner/Orangepi-H616/external/cache/sources/arm-trusted-firmware-sunxi-mainline/master/build/sun50i_h616/debug/bl31/fdt_fixup.o
 .data          0x0000000000000000        0x0 /home/lodge/Allwinner/Orangepi-H616/external/cache/sources/arm-trusted-firmware-sunxi-mainline/master/build/sun50i_h616/debug/bl31/fdt_fixup.o
 .bss           0x0000000000000000        0x0 /home/lodge/Allwinner/Orangepi-H616/external/cache/sources/arm-trusted-firmware-sunxi-mainline/master/build/sun50i_h616/debug/bl31/fdt_fixup.o
 .text.cpu_to_fdt64
                0x0000000000000000        0x8 /home/lodge/Allwinner/Orangepi-H616/external/cache/sources/arm-trusted-firmware-sunxi-mainline/master/build/sun50i_h616/debug/bl31/fdt_fixup.o
 .rodata.append_psci_compatible.str1.1
                0x0000000000000000        0xb /home/lodge/Allwinner/Orangepi-H616/external/cache/sources/arm-trusted-firmware-sunxi-mainline/master/build/sun50i_h616/debug/bl31/fdt_fixup.o
 .text.append_psci_compatible
                0x0000000000000000       0x4c /home/lodge/Allwinner/Orangepi-H616/external/cache/sources/arm-trusted-firmware-sunxi-mainline/master/build/sun50i_h616/debug/bl31/fdt_fixup.o
 .rodata.dt_add_psci_node.str1.1
                0x0000000000000000       0x7e /home/lodge/Allwinner/Orangepi-H616/external/cache/sources/arm-trusted-firmware-sunxi-mainline/master/build/sun50i_h616/debug/bl31/fdt_fixup.o
 .text.dt_add_psci_node
                0x0000000000000000      0x15c /home/lodge/Allwinner/Orangepi-H616/external/cache/sources/arm-trusted-firmware-sunxi-mainline/master/build/sun50i_h616/debug/bl31/fdt_fixup.o
 .rodata.dt_add_psci_cpu_enable_methods.str1.1
                0x0000000000000000       0x24 /home/lodge/Allwinner/Orangepi-H616/external/cache/sources/arm-trusted-firmware-sunxi-mainline/master/build/sun50i_h616/debug/bl31/fdt_fixup.o
 .text.dt_add_psci_cpu_enable_methods
                0x0000000000000000      0x128 /home/lodge/Allwinner/Orangepi-H616/external/cache/sources/arm-trusted-firmware-sunxi-mainline/master/build/sun50i_h616/debug/bl31/fdt_fixup.o
 .rodata.fdt_add_cpus_node.str1.1
                0x0000000000000000       0xc9 /home/lodge/Allwinner/Orangepi-H616/external/cache/sources/arm-trusted-firmware-sunxi-mainline/master/build/sun50i_h616/debug/bl31/fdt_fixup.o
 .text.fdt_add_cpus_node
                0x0000000000000000      0x2c4 /home/lodge/Allwinner/Orangepi-H616/external/cache/sources/arm-trusted-firmware-sunxi-mainline/master/build/sun50i_h616/debug/bl31/fdt_fixup.o
 .rodata.fdt_adjust_gic_redist.str1.1
                0x0000000000000000        0xb /home/lodge/Allwinner/Orangepi-H616/external/cache/sources/arm-trusted-firmware-sunxi-mainline/master/build/sun50i_h616/debug/bl31/fdt_fixup.o
 .text.fdt_adjust_gic_redist
                0x0000000000000000      0x16c /home/lodge/Allwinner/Orangepi-H616/external/cache/sources/arm-trusted-firmware-sunxi-mainline/master/build/sun50i_h616/debug/bl31/fdt_fixup.o
 .eh_frame      0x0000000000000000      0x1b0 /home/lodge/Allwinner/Orangepi-H616/external/cache/sources/arm-trusted-firmware-sunxi-mainline/master/build/sun50i_h616/debug/bl31/fdt_fixup.o
 .text          0x0000000000000000        0x0 /home/lodge/Allwinner/Orangepi-H616/external/cache/sources/arm-trusted-firmware-sunxi-mainline/master/build/sun50i_h616/debug/bl31/runtime_svc.o
 .data          0x0000000000000000        0x0 /home/lodge/Allwinner/Orangepi-H616/external/cache/sources/arm-trusted-firmware-sunxi-mainline/master/build/sun50i_h616/debug/bl31/runtime_svc.o
 .bss           0x0000000000000000        0x0 /home/lodge/Allwinner/Orangepi-H616/external/cache/sources/arm-trusted-firmware-sunxi-mainline/master/build/sun50i_h616/debug/bl31/runtime_svc.o
 .text.handle_runtime_svc
                0x0000000000000000       0x90 /home/lodge/Allwinner/Orangepi-H616/external/cache/sources/arm-trusted-firmware-sunxi-mainline/master/build/sun50i_h616/debug/bl31/runtime_svc.o
 .eh_frame      0x0000000000000000       0x70 /home/lodge/Allwinner/Orangepi-H616/external/cache/sources/arm-trusted-firmware-sunxi-mainline/master/build/sun50i_h616/debug/bl31/runtime_svc.o
 .text          0x0000000000000000        0x0 /home/lodge/Allwinner/Orangepi-H616/external/cache/sources/arm-trusted-firmware-sunxi-mainline/master/build/sun50i_h616/debug/bl31/axp805.o
 .data          0x0000000000000000        0x0 /home/lodge/Allwinner/Orangepi-H616/external/cache/sources/arm-trusted-firmware-sunxi-mainline/master/build/sun50i_h616/debug/bl31/axp805.o
 .bss           0x0000000000000000        0x0 /home/lodge/Allwinner/Orangepi-H616/external/cache/sources/arm-trusted-firmware-sunxi-mainline/master/build/sun50i_h616/debug/bl31/axp805.o
 .text          0x0000000000000000        0x0 /home/lodge/Allwinner/Orangepi-H616/external/cache/sources/arm-trusted-firmware-sunxi-mainline/master/build/sun50i_h616/debug/bl31/common.o
 .data          0x0000000000000000        0x0 /home/lodge/Allwinner/Orangepi-H616/external/cache/sources/arm-trusted-firmware-sunxi-mainline/master/build/sun50i_h616/debug/bl31/common.o
 .bss           0x0000000000000000        0x0 /home/lodge/Allwinner/Orangepi-H616/external/cache/sources/arm-trusted-firmware-sunxi-mainline/master/build/sun50i_h616/debug/bl31/common.o
 .eh_frame      0x0000000000000000       0xc8 /home/lodge/Allwinner/Orangepi-H616/external/cache/sources/arm-trusted-firmware-sunxi-mainline/master/build/sun50i_h616/debug/bl31/common.o
 .text          0x0000000000000000        0x0 /home/lodge/Allwinner/Orangepi-H616/external/cache/sources/arm-trusted-firmware-sunxi-mainline/master/build/sun50i_h616/debug/bl31/sunxi_rsb.o
 .data          0x0000000000000000        0x0 /home/lodge/Allwinner/Orangepi-H616/external/cache/sources/arm-trusted-firmware-sunxi-mainline/master/build/sun50i_h616/debug/bl31/sunxi_rsb.o
 .bss           0x0000000000000000        0x0 /home/lodge/Allwinner/Orangepi-H616/external/cache/sources/arm-trusted-firmware-sunxi-mainline/master/build/sun50i_h616/debug/bl31/sunxi_rsb.o
 .eh_frame      0x0000000000000000       0xe0 /home/lodge/Allwinner/Orangepi-H616/external/cache/sources/arm-trusted-firmware-sunxi-mainline/master/build/sun50i_h616/debug/bl31/sunxi_rsb.o
 .text          0x0000000000000000        0x0 /home/lodge/Allwinner/Orangepi-H616/external/cache/sources/arm-trusted-firmware-sunxi-mainline/master/build/sun50i_h616/debug/bl31/gicdv2_helpers.o
 .data          0x0000000000000000        0x0 /home/lodge/Allwinner/Orangepi-H616/external/cache/sources/arm-trusted-firmware-sunxi-mainline/master/build/sun50i_h616/debug/bl31/gicdv2_helpers.o
 .bss           0x0000000000000000        0x0 /home/lodge/Allwinner/Orangepi-H616/external/cache/sources/arm-trusted-firmware-sunxi-mainline/master/build/sun50i_h616/debug/bl31/gicdv2_helpers.o
 .text.gicd_read_isenabler
                0x0000000000000000       0x14 /home/lodge/Allwinner/Orangepi-H616/external/cache/sources/arm-trusted-firmware-sunxi-mainline/master/build/sun50i_h616/debug/bl31/gicdv2_helpers.o
 .text.gicd_read_icenabler
                0x0000000000000000       0x14 /home/lodge/Allwinner/Orangepi-H616/external/cache/sources/arm-trusted-firmware-sunxi-mainline/master/build/sun50i_h616/debug/bl31/gicdv2_helpers.o
 .text.gicd_read_ispendr
                0x0000000000000000       0x14 /home/lodge/Allwinner/Orangepi-H616/external/cache/sources/arm-trusted-firmware-sunxi-mainline/master/build/sun50i_h616/debug/bl31/gicdv2_helpers.o
 .text.gicd_read_icpendr
                0x0000000000000000       0x14 /home/lodge/Allwinner/Orangepi-H616/external/cache/sources/arm-trusted-firmware-sunxi-mainline/master/build/sun50i_h616/debug/bl31/gicdv2_helpers.o
 .text.gicd_read_isactiver
                0x0000000000000000       0x14 /home/lodge/Allwinner/Orangepi-H616/external/cache/sources/arm-trusted-firmware-sunxi-mainline/master/build/sun50i_h616/debug/bl31/gicdv2_helpers.o
 .text.gicd_read_icactiver
                0x0000000000000000       0x14 /home/lodge/Allwinner/Orangepi-H616/external/cache/sources/arm-trusted-firmware-sunxi-mainline/master/build/sun50i_h616/debug/bl31/gicdv2_helpers.o
 .text.gicd_read_ipriorityr
                0x0000000000000000       0x10 /home/lodge/Allwinner/Orangepi-H616/external/cache/sources/arm-trusted-firmware-sunxi-mainline/master/build/sun50i_h616/debug/bl31/gicdv2_helpers.o
 .text.gicd_read_nsacr
                0x0000000000000000       0x14 /home/lodge/Allwinner/Orangepi-H616/external/cache/sources/arm-trusted-firmware-sunxi-mainline/master/build/sun50i_h616/debug/bl31/gicdv2_helpers.o
 .text.gicd_write_ispendr
                0x0000000000000000       0x14 /home/lodge/Allwinner/Orangepi-H616/external/cache/sources/arm-trusted-firmware-sunxi-mainline/master/build/sun50i_h616/debug/bl31/gicdv2_helpers.o
 .text.gicd_write_icpendr
                0x0000000000000000       0x14 /home/lodge/Allwinner/Orangepi-H616/external/cache/sources/arm-trusted-firmware-sunxi-mainline/master/build/sun50i_h616/debug/bl31/gicdv2_helpers.o
 .text.gicd_write_isactiver
                0x0000000000000000       0x14 /home/lodge/Allwinner/Orangepi-H616/external/cache/sources/arm-trusted-firmware-sunxi-mainline/master/build/sun50i_h616/debug/bl31/gicdv2_helpers.o
 .text.gicd_write_icactiver
                0x0000000000000000       0x14 /home/lodge/Allwinner/Orangepi-H616/external/cache/sources/arm-trusted-firmware-sunxi-mainline/master/build/sun50i_h616/debug/bl31/gicdv2_helpers.o
 .text.gicd_write_nsacr
                0x0000000000000000       0x14 /home/lodge/Allwinner/Orangepi-H616/external/cache/sources/arm-trusted-firmware-sunxi-mainline/master/build/sun50i_h616/debug/bl31/gicdv2_helpers.o
 .text.gicd_get_igroupr
                0x0000000000000000       0x20 /home/lodge/Allwinner/Orangepi-H616/external/cache/sources/arm-trusted-firmware-sunxi-mainline/master/build/sun50i_h616/debug/bl31/gicdv2_helpers.o
 .text.gicd_set_igroupr
                0x0000000000000000       0x30 /home/lodge/Allwinner/Orangepi-H616/external/cache/sources/arm-trusted-firmware-sunxi-mainline/master/build/sun50i_h616/debug/bl31/gicdv2_helpers.o
 .text.gicd_set_icenabler
                0x0000000000000000        0xc /home/lodge/Allwinner/Orangepi-H616/external/cache/sources/arm-trusted-firmware-sunxi-mainline/master/build/sun50i_h616/debug/bl31/gicdv2_helpers.o
 .text.gicd_set_ispendr
                0x0000000000000000        0xc /home/lodge/Allwinner/Orangepi-H616/external/cache/sources/arm-trusted-firmware-sunxi-mainline/master/build/sun50i_h616/debug/bl31/gicdv2_helpers.o
 .text.gicd_set_icpendr
                0x0000000000000000        0xc /home/lodge/Allwinner/Orangepi-H616/external/cache/sources/arm-trusted-firmware-sunxi-mainline/master/build/sun50i_h616/debug/bl31/gicdv2_helpers.o
 .text.gicd_get_isactiver
                0x0000000000000000       0x20 /home/lodge/Allwinner/Orangepi-H616/external/cache/sources/arm-trusted-firmware-sunxi-mainline/master/build/sun50i_h616/debug/bl31/gicdv2_helpers.o
 .text.gicd_set_isactiver
                0x0000000000000000        0xc /home/lodge/Allwinner/Orangepi-H616/external/cache/sources/arm-trusted-firmware-sunxi-mainline/master/build/sun50i_h616/debug/bl31/gicdv2_helpers.o
 .text.gicd_set_icactiver
                0x0000000000000000        0xc /home/lodge/Allwinner/Orangepi-H616/external/cache/sources/arm-trusted-firmware-sunxi-mainline/master/build/sun50i_h616/debug/bl31/gicdv2_helpers.o
 .eh_frame      0x0000000000000000      0x2d0 /home/lodge/Allwinner/Orangepi-H616/external/cache/sources/arm-trusted-firmware-sunxi-mainline/master/build/sun50i_h616/debug/bl31/gicdv2_helpers.o
 .text          0x0000000000000000        0x0 /home/lodge/Allwinner/Orangepi-H616/external/cache/sources/arm-trusted-firmware-sunxi-mainline/master/build/sun50i_h616/debug/bl31/gicv2_helpers.o
 .data          0x0000000000000000        0x0 /home/lodge/Allwinner/Orangepi-H616/external/cache/sources/arm-trusted-firmware-sunxi-mainline/master/build/sun50i_h616/debug/bl31/gicv2_helpers.o
 .bss           0x0000000000000000        0x0 /home/lodge/Allwinner/Orangepi-H616/external/cache/sources/arm-trusted-firmware-sunxi-mainline/master/build/sun50i_h616/debug/bl31/gicv2_helpers.o
 .text.gicd_read_itargetsr
                0x0000000000000000       0x10 /home/lodge/Allwinner/Orangepi-H616/external/cache/sources/arm-trusted-firmware-sunxi-mainline/master/build/sun50i_h616/debug/bl31/gicv2_helpers.o
 .text.gicd_read_cpendsgir
                0x0000000000000000       0x10 /home/lodge/Allwinner/Orangepi-H616/external/cache/sources/arm-trusted-firmware-sunxi-mainline/master/build/sun50i_h616/debug/bl31/gicv2_helpers.o
 .text.gicd_read_spendsgir
                0x0000000000000000       0x10 /home/lodge/Allwinner/Orangepi-H616/external/cache/sources/arm-trusted-firmware-sunxi-mainline/master/build/sun50i_h616/debug/bl31/gicv2_helpers.o
 .text.gicd_write_itargetsr
                0x0000000000000000       0x10 /home/lodge/Allwinner/Orangepi-H616/external/cache/sources/arm-trusted-firmware-sunxi-mainline/master/build/sun50i_h616/debug/bl31/gicv2_helpers.o
 .text.gicd_write_cpendsgir
                0x0000000000000000       0x10 /home/lodge/Allwinner/Orangepi-H616/external/cache/sources/arm-trusted-firmware-sunxi-mainline/master/build/sun50i_h616/debug/bl31/gicv2_helpers.o
 .text.gicd_write_spendsgir
                0x0000000000000000       0x10 /home/lodge/Allwinner/Orangepi-H616/external/cache/sources/arm-trusted-firmware-sunxi-mainline/master/build/sun50i_h616/debug/bl31/gicv2_helpers.o
 .text.gicv2_get_cpuif_id
                0x0000000000000000        0xc /home/lodge/Allwinner/Orangepi-H616/external/cache/sources/arm-trusted-firmware-sunxi-mainline/master/build/sun50i_h616/debug/bl31/gicv2_helpers.o
 .eh_frame      0x0000000000000000      0x138 /home/lodge/Allwinner/Orangepi-H616/external/cache/sources/arm-trusted-firmware-sunxi-mainline/master/build/sun50i_h616/debug/bl31/gicv2_helpers.o
 .text          0x0000000000000000        0x0 /home/lodge/Allwinner/Orangepi-H616/external/cache/sources/arm-trusted-firmware-sunxi-mainline/master/build/sun50i_h616/debug/bl31/gicv2_main.o
 .data          0x0000000000000000        0x0 /home/lodge/Allwinner/Orangepi-H616/external/cache/sources/arm-trusted-firmware-sunxi-mainline/master/build/sun50i_h616/debug/bl31/gicv2_main.o
 .bss           0x0000000000000000        0x0 /home/lodge/Allwinner/Orangepi-H616/external/cache/sources/arm-trusted-firmware-sunxi-mainline/master/build/sun50i_h616/debug/bl31/gicv2_main.o
 .text.gicv2_is_fiq_enabled
                0x0000000000000000       0x44 /home/lodge/Allwinner/Orangepi-H616/external/cache/sources/arm-trusted-firmware-sunxi-mainline/master/build/sun50i_h616/debug/bl31/gicv2_main.o
 .text.gicv2_get_pending_interrupt_id
                0x0000000000000000       0x54 /home/lodge/Allwinner/Orangepi-H616/external/cache/sources/arm-trusted-firmware-sunxi-mainline/master/build/sun50i_h616/debug/bl31/gicv2_main.o
 .text.gicv2_acknowledge_interrupt
                0x0000000000000000       0x40 /home/lodge/Allwinner/Orangepi-H616/external/cache/sources/arm-trusted-firmware-sunxi-mainline/master/build/sun50i_h616/debug/bl31/gicv2_main.o
 .text.gicv2_end_of_interrupt
                0x0000000000000000       0x4c /home/lodge/Allwinner/Orangepi-H616/external/cache/sources/arm-trusted-firmware-sunxi-mainline/master/build/sun50i_h616/debug/bl31/gicv2_main.o
 .text.gicv2_get_interrupt_group
                0x0000000000000000       0x40 /home/lodge/Allwinner/Orangepi-H616/external/cache/sources/arm-trusted-firmware-sunxi-mainline/master/build/sun50i_h616/debug/bl31/gicv2_main.o
 .text.gicv2_get_running_priority
                0x0000000000000000       0x40 /home/lodge/Allwinner/Orangepi-H616/external/cache/sources/arm-trusted-firmware-sunxi-mainline/master/build/sun50i_h616/debug/bl31/gicv2_main.o
 .text.gicv2_set_pe_target_mask
                0x0000000000000000       0x90 /home/lodge/Allwinner/Orangepi-H616/external/cache/sources/arm-trusted-firmware-sunxi-mainline/master/build/sun50i_h616/debug/bl31/gicv2_main.o
 .text.gicv2_get_interrupt_active
                0x0000000000000000       0x50 /home/lodge/Allwinner/Orangepi-H616/external/cache/sources/arm-trusted-firmware-sunxi-mainline/master/build/sun50i_h616/debug/bl31/gicv2_main.o
 .text.gicv2_enable_interrupt
                0x0000000000000000       0x5c /home/lodge/Allwinner/Orangepi-H616/external/cache/sources/arm-trusted-firmware-sunxi-mainline/master/build/sun50i_h616/debug/bl31/gicv2_main.o
 .text.gicv2_disable_interrupt
                0x0000000000000000       0x58 /home/lodge/Allwinner/Orangepi-H616/external/cache/sources/arm-trusted-firmware-sunxi-mainline/master/build/sun50i_h616/debug/bl31/gicv2_main.o
 .text.gicv2_set_interrupt_priority
                0x0000000000000000       0x58 /home/lodge/Allwinner/Orangepi-H616/external/cache/sources/arm-trusted-firmware-sunxi-mainline/master/build/sun50i_h616/debug/bl31/gicv2_main.o
 .text.gicv2_set_interrupt_type
                0x0000000000000000       0xb0 /home/lodge/Allwinner/Orangepi-H616/external/cache/sources/arm-trusted-firmware-sunxi-mainline/master/build/sun50i_h616/debug/bl31/gicv2_main.o
 .text.gicv2_raise_sgi
                0x0000000000000000       0xa8 /home/lodge/Allwinner/Orangepi-H616/external/cache/sources/arm-trusted-firmware-sunxi-mainline/master/build/sun50i_h616/debug/bl31/gicv2_main.o
 .text.gicv2_set_spi_routing
                0x0000000000000000       0xc0 /home/lodge/Allwinner/Orangepi-H616/external/cache/sources/arm-trusted-firmware-sunxi-mainline/master/build/sun50i_h616/debug/bl31/gicv2_main.o
 .text.gicv2_clear_interrupt_pending
                0x0000000000000000       0x58 /home/lodge/Allwinner/Orangepi-H616/external/cache/sources/arm-trusted-firmware-sunxi-mainline/master/build/sun50i_h616/debug/bl31/gicv2_main.o
 .text.gicv2_set_interrupt_pending
                0x0000000000000000       0x5c /home/lodge/Allwinner/Orangepi-H616/external/cache/sources/arm-trusted-firmware-sunxi-mainline/master/build/sun50i_h616/debug/bl31/gicv2_main.o
 .text.gicv2_set_pmr
                0x0000000000000000       0x58 /home/lodge/Allwinner/Orangepi-H616/external/cache/sources/arm-trusted-firmware-sunxi-mainline/master/build/sun50i_h616/debug/bl31/gicv2_main.o
 .text.gicv2_interrupt_set_cfg
                0x0000000000000000       0x18 /home/lodge/Allwinner/Orangepi-H616/external/cache/sources/arm-trusted-firmware-sunxi-mainline/master/build/sun50i_h616/debug/bl31/gicv2_main.o
 .bss.gic_lock  0x0000000000000000        0x4 /home/lodge/Allwinner/Orangepi-H616/external/cache/sources/arm-trusted-firmware-sunxi-mainline/master/build/sun50i_h616/debug/bl31/gicv2_main.o
 .eh_frame      0x0000000000000000      0x328 /home/lodge/Allwinner/Orangepi-H616/external/cache/sources/arm-trusted-firmware-sunxi-mainline/master/build/sun50i_h616/debug/bl31/gicv2_main.o
 .text          0x0000000000000000        0x0 /home/lodge/Allwinner/Orangepi-H616/external/cache/sources/arm-trusted-firmware-sunxi-mainline/master/build/sun50i_h616/debug/bl31/delay_timer.o
 .data          0x0000000000000000        0x0 /home/lodge/Allwinner/Orangepi-H616/external/cache/sources/arm-trusted-firmware-sunxi-mainline/master/build/sun50i_h616/debug/bl31/delay_timer.o
 .bss           0x0000000000000000        0x0 /home/lodge/Allwinner/Orangepi-H616/external/cache/sources/arm-trusted-firmware-sunxi-mainline/master/build/sun50i_h616/debug/bl31/delay_timer.o
 .eh_frame      0x0000000000000000       0x80 /home/lodge/Allwinner/Orangepi-H616/external/cache/sources/arm-trusted-firmware-sunxi-mainline/master/build/sun50i_h616/debug/bl31/delay_timer.o
 .text          0x0000000000000000        0x0 /home/lodge/Allwinner/Orangepi-H616/external/cache/sources/arm-trusted-firmware-sunxi-mainline/master/build/sun50i_h616/debug/bl31/generic_delay_timer.o
 .data          0x0000000000000000        0x0 /home/lodge/Allwinner/Orangepi-H616/external/cache/sources/arm-trusted-firmware-sunxi-mainline/master/build/sun50i_h616/debug/bl31/generic_delay_timer.o
 .bss           0x0000000000000000        0x0 /home/lodge/Allwinner/Orangepi-H616/external/cache/sources/arm-trusted-firmware-sunxi-mainline/master/build/sun50i_h616/debug/bl31/generic_delay_timer.o
 .eh_frame      0x0000000000000000       0x60 /home/lodge/Allwinner/Orangepi-H616/external/cache/sources/arm-trusted-firmware-sunxi-mainline/master/build/sun50i_h616/debug/bl31/generic_delay_timer.o
 .text          0x0000000000000000        0x0 /home/lodge/Allwinner/Orangepi-H616/external/cache/sources/arm-trusted-firmware-sunxi-mainline/master/build/sun50i_h616/debug/bl31/errata_report.o
 .data          0x0000000000000000        0x0 /home/lodge/Allwinner/Orangepi-H616/external/cache/sources/arm-trusted-firmware-sunxi-mainline/master/build/sun50i_h616/debug/bl31/errata_report.o
 .bss           0x0000000000000000        0x0 /home/lodge/Allwinner/Orangepi-H616/external/cache/sources/arm-trusted-firmware-sunxi-mainline/master/build/sun50i_h616/debug/bl31/errata_report.o
 .eh_frame      0x0000000000000000       0x68 /home/lodge/Allwinner/Orangepi-H616/external/cache/sources/arm-trusted-firmware-sunxi-mainline/master/build/sun50i_h616/debug/bl31/errata_report.o
 .text          0x0000000000000000        0x0 /home/lodge/Allwinner/Orangepi-H616/external/cache/sources/arm-trusted-firmware-sunxi-mainline/master/build/sun50i_h616/debug/bl31/context_mgmt.o
 .data          0x0000000000000000        0x0 /home/lodge/Allwinner/Orangepi-H616/external/cache/sources/arm-trusted-firmware-sunxi-mainline/master/build/sun50i_h616/debug/bl31/context_mgmt.o
 .bss           0x0000000000000000        0x0 /home/lodge/Allwinner/Orangepi-H616/external/cache/sources/arm-trusted-firmware-sunxi-mainline/master/build/sun50i_h616/debug/bl31/context_mgmt.o
 .text.cm_el1_sysregs_context_save
                0x0000000000000000       0x90 /home/lodge/Allwinner/Orangepi-H616/external/cache/sources/arm-trusted-firmware-sunxi-mainline/master/build/sun50i_h616/debug/bl31/context_mgmt.o
 .text.cm_set_elr_el3
                0x0000000000000000       0x38 /home/lodge/Allwinner/Orangepi-H616/external/cache/sources/arm-trusted-firmware-sunxi-mainline/master/build/sun50i_h616/debug/bl31/context_mgmt.o
 .text.cm_set_elr_spsr_el3
                0x0000000000000000       0x3c /home/lodge/Allwinner/Orangepi-H616/external/cache/sources/arm-trusted-firmware-sunxi-mainline/master/build/sun50i_h616/debug/bl31/context_mgmt.o
 .text.cm_write_scr_el3_bit
                0x0000000000000000       0x7c /home/lodge/Allwinner/Orangepi-H616/external/cache/sources/arm-trusted-firmware-sunxi-mainline/master/build/sun50i_h616/debug/bl31/context_mgmt.o
 .text.cm_get_scr_el3
                0x0000000000000000       0x2c /home/lodge/Allwinner/Orangepi-H616/external/cache/sources/arm-trusted-firmware-sunxi-mainline/master/build/sun50i_h616/debug/bl31/context_mgmt.o
 .eh_frame      0x0000000000000000      0x1c0 /home/lodge/Allwinner/Orangepi-H616/external/cache/sources/arm-trusted-firmware-sunxi-mainline/master/build/sun50i_h616/debug/bl31/context_mgmt.o
 .text          0x0000000000000000        0x0 /home/lodge/Allwinner/Orangepi-H616/external/cache/sources/arm-trusted-firmware-sunxi-mainline/master/build/sun50i_h616/debug/bl31/cpu_data_array.o
 .data          0x0000000000000000        0x0 /home/lodge/Allwinner/Orangepi-H616/external/cache/sources/arm-trusted-firmware-sunxi-mainline/master/build/sun50i_h616/debug/bl31/cpu_data_array.o
 .bss           0x0000000000000000        0x0 /home/lodge/Allwinner/Orangepi-H616/external/cache/sources/arm-trusted-firmware-sunxi-mainline/master/build/sun50i_h616/debug/bl31/cpu_data_array.o
 .text          0x0000000000000000        0x0 /home/lodge/Allwinner/Orangepi-H616/external/cache/sources/arm-trusted-firmware-sunxi-mainline/master/build/sun50i_h616/debug/bl31/bakery_lock_coherent.o
 .data          0x0000000000000000        0x0 /home/lodge/Allwinner/Orangepi-H616/external/cache/sources/arm-trusted-firmware-sunxi-mainline/master/build/sun50i_h616/debug/bl31/bakery_lock_coherent.o
 .bss           0x0000000000000000        0x0 /home/lodge/Allwinner/Orangepi-H616/external/cache/sources/arm-trusted-firmware-sunxi-mainline/master/build/sun50i_h616/debug/bl31/bakery_lock_coherent.o
 .eh_frame      0x0000000000000000       0x60 /home/lodge/Allwinner/Orangepi-H616/external/cache/sources/arm-trusted-firmware-sunxi-mainline/master/build/sun50i_h616/debug/bl31/bakery_lock_coherent.o
 .text          0x0000000000000000        0x0 /home/lodge/Allwinner/Orangepi-H616/external/cache/sources/arm-trusted-firmware-sunxi-mainline/master/build/sun50i_h616/debug/bl31/psci_common.o
 .data          0x0000000000000000        0x0 /home/lodge/Allwinner/Orangepi-H616/external/cache/sources/arm-trusted-firmware-sunxi-mainline/master/build/sun50i_h616/debug/bl31/psci_common.o
 .bss           0x0000000000000000        0x0 /home/lodge/Allwinner/Orangepi-H616/external/cache/sources/arm-trusted-firmware-sunxi-mainline/master/build/sun50i_h616/debug/bl31/psci_common.o
 .text.psci_register_spd_pm_hook
                0x0000000000000000       0x58 /home/lodge/Allwinner/Orangepi-H616/external/cache/sources/arm-trusted-firmware-sunxi-mainline/master/build/sun50i_h616/debug/bl31/psci_common.o
 .text.psci_secondaries_brought_up
                0x0000000000000000       0x58 /home/lodge/Allwinner/Orangepi-H616/external/cache/sources/arm-trusted-firmware-sunxi-mainline/master/build/sun50i_h616/debug/bl31/psci_common.o
 .rodata.psci_stop_other_cores.str1.1
                0x0000000000000000       0x1c /home/lodge/Allwinner/Orangepi-H616/external/cache/sources/arm-trusted-firmware-sunxi-mainline/master/build/sun50i_h616/debug/bl31/psci_common.o
 .text.psci_stop_other_cores
                0x0000000000000000       0xc4 /home/lodge/Allwinner/Orangepi-H616/external/cache/sources/arm-trusted-firmware-sunxi-mainline/master/build/sun50i_h616/debug/bl31/psci_common.o
 .eh_frame      0x0000000000000000      0x388 /home/lodge/Allwinner/Orangepi-H616/external/cache/sources/arm-trusted-firmware-sunxi-mainline/master/build/sun50i_h616/debug/bl31/psci_common.o
 .text          0x0000000000000000        0x0 /home/lodge/Allwinner/Orangepi-H616/external/cache/sources/arm-trusted-firmware-sunxi-mainline/master/build/sun50i_h616/debug/bl31/psci_main.o
 .data          0x0000000000000000        0x0 /home/lodge/Allwinner/Orangepi-H616/external/cache/sources/arm-trusted-firmware-sunxi-mainline/master/build/sun50i_h616/debug/bl31/psci_main.o
 .bss           0x0000000000000000        0x0 /home/lodge/Allwinner/Orangepi-H616/external/cache/sources/arm-trusted-firmware-sunxi-mainline/master/build/sun50i_h616/debug/bl31/psci_main.o
 .text.psci_version
                0x0000000000000000        0x8 /home/lodge/Allwinner/Orangepi-H616/external/cache/sources/arm-trusted-firmware-sunxi-mainline/master/build/sun50i_h616/debug/bl31/psci_main.o
 .eh_frame      0x0000000000000000      0x1e8 /home/lodge/Allwinner/Orangepi-H616/external/cache/sources/arm-trusted-firmware-sunxi-mainline/master/build/sun50i_h616/debug/bl31/psci_main.o
 .text          0x0000000000000000        0x0 /home/lodge/Allwinner/Orangepi-H616/external/cache/sources/arm-trusted-firmware-sunxi-mainline/master/build/sun50i_h616/debug/bl31/psci_mem_protect.o
 .data          0x0000000000000000        0x0 /home/lodge/Allwinner/Orangepi-H616/external/cache/sources/arm-trusted-firmware-sunxi-mainline/master/build/sun50i_h616/debug/bl31/psci_mem_protect.o
 .bss           0x0000000000000000        0x0 /home/lodge/Allwinner/Orangepi-H616/external/cache/sources/arm-trusted-firmware-sunxi-mainline/master/build/sun50i_h616/debug/bl31/psci_mem_protect.o
 .eh_frame      0x0000000000000000       0x60 /home/lodge/Allwinner/Orangepi-H616/external/cache/sources/arm-trusted-firmware-sunxi-mainline/master/build/sun50i_h616/debug/bl31/psci_mem_protect.o
 .text          0x0000000000000000        0x0 /home/lodge/Allwinner/Orangepi-H616/external/cache/sources/arm-trusted-firmware-sunxi-mainline/master/build/sun50i_h616/debug/bl31/psci_off.o
 .data          0x0000000000000000        0x0 /home/lodge/Allwinner/Orangepi-H616/external/cache/sources/arm-trusted-firmware-sunxi-mainline/master/build/sun50i_h616/debug/bl31/psci_off.o
 .bss           0x0000000000000000        0x0 /home/lodge/Allwinner/Orangepi-H616/external/cache/sources/arm-trusted-firmware-sunxi-mainline/master/build/sun50i_h616/debug/bl31/psci_off.o
 .eh_frame      0x0000000000000000       0x40 /home/lodge/Allwinner/Orangepi-H616/external/cache/sources/arm-trusted-firmware-sunxi-mainline/master/build/sun50i_h616/debug/bl31/psci_off.o
 .text          0x0000000000000000        0x0 /home/lodge/Allwinner/Orangepi-H616/external/cache/sources/arm-trusted-firmware-sunxi-mainline/master/build/sun50i_h616/debug/bl31/psci_on.o
 .data          0x0000000000000000        0x0 /home/lodge/Allwinner/Orangepi-H616/external/cache/sources/arm-trusted-firmware-sunxi-mainline/master/build/sun50i_h616/debug/bl31/psci_on.o
 .bss           0x0000000000000000        0x0 /home/lodge/Allwinner/Orangepi-H616/external/cache/sources/arm-trusted-firmware-sunxi-mainline/master/build/sun50i_h616/debug/bl31/psci_on.o
 .eh_frame      0x0000000000000000       0x80 /home/lodge/Allwinner/Orangepi-H616/external/cache/sources/arm-trusted-firmware-sunxi-mainline/master/build/sun50i_h616/debug/bl31/psci_on.o
 .text          0x0000000000000000        0x0 /home/lodge/Allwinner/Orangepi-H616/external/cache/sources/arm-trusted-firmware-sunxi-mainline/master/build/sun50i_h616/debug/bl31/psci_setup.o
 .data          0x0000000000000000        0x0 /home/lodge/Allwinner/Orangepi-H616/external/cache/sources/arm-trusted-firmware-sunxi-mainline/master/build/sun50i_h616/debug/bl31/psci_setup.o
 .bss           0x0000000000000000        0x0 /home/lodge/Allwinner/Orangepi-H616/external/cache/sources/arm-trusted-firmware-sunxi-mainline/master/build/sun50i_h616/debug/bl31/psci_setup.o
 .text.psci_prepare_next_non_secure_ctx
                0x0000000000000000       0x44 /home/lodge/Allwinner/Orangepi-H616/external/cache/sources/arm-trusted-firmware-sunxi-mainline/master/build/sun50i_h616/debug/bl31/psci_setup.o
 .eh_frame      0x0000000000000000       0x98 /home/lodge/Allwinner/Orangepi-H616/external/cache/sources/arm-trusted-firmware-sunxi-mainline/master/build/sun50i_h616/debug/bl31/psci_setup.o
 .text          0x0000000000000000        0x0 /home/lodge/Allwinner/Orangepi-H616/external/cache/sources/arm-trusted-firmware-sunxi-mainline/master/build/sun50i_h616/debug/bl31/psci_suspend.o
 .data          0x0000000000000000        0x0 /home/lodge/Allwinner/Orangepi-H616/external/cache/sources/arm-trusted-firmware-sunxi-mainline/master/build/sun50i_h616/debug/bl31/psci_suspend.o
 .bss           0x0000000000000000        0x0 /home/lodge/Allwinner/Orangepi-H616/external/cache/sources/arm-trusted-firmware-sunxi-mainline/master/build/sun50i_h616/debug/bl31/psci_suspend.o
 .eh_frame      0x0000000000000000       0x80 /home/lodge/Allwinner/Orangepi-H616/external/cache/sources/arm-trusted-firmware-sunxi-mainline/master/build/sun50i_h616/debug/bl31/psci_suspend.o
 .text          0x0000000000000000        0x0 /home/lodge/Allwinner/Orangepi-H616/external/cache/sources/arm-trusted-firmware-sunxi-mainline/master/build/sun50i_h616/debug/bl31/psci_system_off.o
 .data          0x0000000000000000        0x0 /home/lodge/Allwinner/Orangepi-H616/external/cache/sources/arm-trusted-firmware-sunxi-mainline/master/build/sun50i_h616/debug/bl31/psci_system_off.o
 .bss           0x0000000000000000        0x0 /home/lodge/Allwinner/Orangepi-H616/external/cache/sources/arm-trusted-firmware-sunxi-mainline/master/build/sun50i_h616/debug/bl31/psci_system_off.o
 .eh_frame      0x0000000000000000       0x80 /home/lodge/Allwinner/Orangepi-H616/external/cache/sources/arm-trusted-firmware-sunxi-mainline/master/build/sun50i_h616/debug/bl31/psci_system_off.o
 .text          0x0000000000000000        0x0 /home/lodge/Allwinner/Orangepi-H616/external/cache/sources/arm-trusted-firmware-sunxi-mainline/master/build/sun50i_h616/debug/bl31/sunxi_bl31_setup.o
 .data          0x0000000000000000        0x0 /home/lodge/Allwinner/Orangepi-H616/external/cache/sources/arm-trusted-firmware-sunxi-mainline/master/build/sun50i_h616/debug/bl31/sunxi_bl31_setup.o
 .bss           0x0000000000000000        0x0 /home/lodge/Allwinner/Orangepi-H616/external/cache/sources/arm-trusted-firmware-sunxi-mainline/master/build/sun50i_h616/debug/bl31/sunxi_bl31_setup.o
 .eh_frame      0x0000000000000000       0xa0 /home/lodge/Allwinner/Orangepi-H616/external/cache/sources/arm-trusted-firmware-sunxi-mainline/master/build/sun50i_h616/debug/bl31/sunxi_bl31_setup.o
 .text          0x0000000000000000        0x0 /home/lodge/Allwinner/Orangepi-H616/external/cache/sources/arm-trusted-firmware-sunxi-mainline/master/build/sun50i_h616/debug/bl31/sunxi_cpu_ops.o
 .data          0x0000000000000000        0x0 /home/lodge/Allwinner/Orangepi-H616/external/cache/sources/arm-trusted-firmware-sunxi-mainline/master/build/sun50i_h616/debug/bl31/sunxi_cpu_ops.o
 .bss           0x0000000000000000        0x0 /home/lodge/Allwinner/Orangepi-H616/external/cache/sources/arm-trusted-firmware-sunxi-mainline/master/build/sun50i_h616/debug/bl31/sunxi_cpu_ops.o
 .eh_frame      0x0000000000000000       0x58 /home/lodge/Allwinner/Orangepi-H616/external/cache/sources/arm-trusted-firmware-sunxi-mainline/master/build/sun50i_h616/debug/bl31/sunxi_cpu_ops.o
 .text          0x0000000000000000        0x0 /home/lodge/Allwinner/Orangepi-H616/external/cache/sources/arm-trusted-firmware-sunxi-mainline/master/build/sun50i_h616/debug/bl31/sunxi_native_pm.o
 .data          0x0000000000000000        0x0 /home/lodge/Allwinner/Orangepi-H616/external/cache/sources/arm-trusted-firmware-sunxi-mainline/master/build/sun50i_h616/debug/bl31/sunxi_native_pm.o
 .bss           0x0000000000000000        0x0 /home/lodge/Allwinner/Orangepi-H616/external/cache/sources/arm-trusted-firmware-sunxi-mainline/master/build/sun50i_h616/debug/bl31/sunxi_native_pm.o
 .eh_frame      0x0000000000000000       0xb8 /home/lodge/Allwinner/Orangepi-H616/external/cache/sources/arm-trusted-firmware-sunxi-mainline/master/build/sun50i_h616/debug/bl31/sunxi_native_pm.o
 .text          0x0000000000000000        0x0 /home/lodge/Allwinner/Orangepi-H616/external/cache/sources/arm-trusted-firmware-sunxi-mainline/master/build/sun50i_h616/debug/bl31/sunxi_pm.o
 .data          0x0000000000000000        0x0 /home/lodge/Allwinner/Orangepi-H616/external/cache/sources/arm-trusted-firmware-sunxi-mainline/master/build/sun50i_h616/debug/bl31/sunxi_pm.o
 .bss           0x0000000000000000        0x0 /home/lodge/Allwinner/Orangepi-H616/external/cache/sources/arm-trusted-firmware-sunxi-mainline/master/build/sun50i_h616/debug/bl31/sunxi_pm.o
 .eh_frame      0x0000000000000000       0x50 /home/lodge/Allwinner/Orangepi-H616/external/cache/sources/arm-trusted-firmware-sunxi-mainline/master/build/sun50i_h616/debug/bl31/sunxi_pm.o
 .text          0x0000000000000000        0x0 /home/lodge/Allwinner/Orangepi-H616/external/cache/sources/arm-trusted-firmware-sunxi-mainline/master/build/sun50i_h616/debug/bl31/sunxi_security.o
 .data          0x0000000000000000        0x0 /home/lodge/Allwinner/Orangepi-H616/external/cache/sources/arm-trusted-firmware-sunxi-mainline/master/build/sun50i_h616/debug/bl31/sunxi_security.o
 .bss           0x0000000000000000        0x0 /home/lodge/Allwinner/Orangepi-H616/external/cache/sources/arm-trusted-firmware-sunxi-mainline/master/build/sun50i_h616/debug/bl31/sunxi_security.o
 .eh_frame      0x0000000000000000       0x38 /home/lodge/Allwinner/Orangepi-H616/external/cache/sources/arm-trusted-firmware-sunxi-mainline/master/build/sun50i_h616/debug/bl31/sunxi_security.o
 .text          0x0000000000000000        0x0 /home/lodge/Allwinner/Orangepi-H616/external/cache/sources/arm-trusted-firmware-sunxi-mainline/master/build/sun50i_h616/debug/bl31/sunxi_topology.o
 .data          0x0000000000000000        0x0 /home/lodge/Allwinner/Orangepi-H616/external/cache/sources/arm-trusted-firmware-sunxi-mainline/master/build/sun50i_h616/debug/bl31/sunxi_topology.o
 .bss           0x0000000000000000        0x0 /home/lodge/Allwinner/Orangepi-H616/external/cache/sources/arm-trusted-firmware-sunxi-mainline/master/build/sun50i_h616/debug/bl31/sunxi_topology.o
 .eh_frame      0x0000000000000000       0x40 /home/lodge/Allwinner/Orangepi-H616/external/cache/sources/arm-trusted-firmware-sunxi-mainline/master/build/sun50i_h616/debug/bl31/sunxi_topology.o
 .text          0x0000000000000000        0x0 /home/lodge/Allwinner/Orangepi-H616/external/cache/sources/arm-trusted-firmware-sunxi-mainline/master/build/sun50i_h616/debug/bl31/prepare_dtb.o
 .data          0x0000000000000000        0x0 /home/lodge/Allwinner/Orangepi-H616/external/cache/sources/arm-trusted-firmware-sunxi-mainline/master/build/sun50i_h616/debug/bl31/prepare_dtb.o
 .bss           0x0000000000000000        0x0 /home/lodge/Allwinner/Orangepi-H616/external/cache/sources/arm-trusted-firmware-sunxi-mainline/master/build/sun50i_h616/debug/bl31/prepare_dtb.o
 .eh_frame      0x0000000000000000       0x48 /home/lodge/Allwinner/Orangepi-H616/external/cache/sources/arm-trusted-firmware-sunxi-mainline/master/build/sun50i_h616/debug/bl31/prepare_dtb.o
 .text          0x0000000000000000        0x0 /home/lodge/Allwinner/Orangepi-H616/external/cache/sources/arm-trusted-firmware-sunxi-mainline/master/build/sun50i_h616/debug/bl31/sunxi_power.o
 .data          0x0000000000000000        0x0 /home/lodge/Allwinner/Orangepi-H616/external/cache/sources/arm-trusted-firmware-sunxi-mainline/master/build/sun50i_h616/debug/bl31/sunxi_power.o
 .bss           0x0000000000000000        0x0 /home/lodge/Allwinner/Orangepi-H616/external/cache/sources/arm-trusted-firmware-sunxi-mainline/master/build/sun50i_h616/debug/bl31/sunxi_power.o
 .eh_frame      0x0000000000000000       0xc8 /home/lodge/Allwinner/Orangepi-H616/external/cache/sources/arm-trusted-firmware-sunxi-mainline/master/build/sun50i_h616/debug/bl31/sunxi_power.o
 .text          0x0000000000000000        0x0 /home/lodge/Allwinner/Orangepi-H616/external/cache/sources/arm-trusted-firmware-sunxi-mainline/master/build/sun50i_h616/debug/bl31/plat_gicv2.o
 .data          0x0000000000000000        0x0 /home/lodge/Allwinner/Orangepi-H616/external/cache/sources/arm-trusted-firmware-sunxi-mainline/master/build/sun50i_h616/debug/bl31/plat_gicv2.o
 .bss           0x0000000000000000        0x0 /home/lodge/Allwinner/Orangepi-H616/external/cache/sources/arm-trusted-firmware-sunxi-mainline/master/build/sun50i_h616/debug/bl31/plat_gicv2.o
 .text.plat_ic_get_pending_interrupt_id
                0x0000000000000000       0x1c /home/lodge/Allwinner/Orangepi-H616/external/cache/sources/arm-trusted-firmware-sunxi-mainline/master/build/sun50i_h616/debug/bl31/plat_gicv2.o
 .text.plat_ic_acknowledge_interrupt
                0x0000000000000000        0x4 /home/lodge/Allwinner/Orangepi-H616/external/cache/sources/arm-trusted-firmware-sunxi-mainline/master/build/sun50i_h616/debug/bl31/plat_gicv2.o
 .text.plat_ic_get_interrupt_type
                0x0000000000000000       0x20 /home/lodge/Allwinner/Orangepi-H616/external/cache/sources/arm-trusted-firmware-sunxi-mainline/master/build/sun50i_h616/debug/bl31/plat_gicv2.o
 .text.plat_ic_end_of_interrupt
                0x0000000000000000        0x4 /home/lodge/Allwinner/Orangepi-H616/external/cache/sources/arm-trusted-firmware-sunxi-mainline/master/build/sun50i_h616/debug/bl31/plat_gicv2.o
 .rodata.plat_interrupt_type_to_line.str1.1
                0x0000000000000000       0x19 /home/lodge/Allwinner/Orangepi-H616/external/cache/sources/arm-trusted-firmware-sunxi-mainline/master/build/sun50i_h616/debug/bl31/plat_gicv2.o
 .text.plat_interrupt_type_to_line
                0x0000000000000000       0x54 /home/lodge/Allwinner/Orangepi-H616/external/cache/sources/arm-trusted-firmware-sunxi-mainline/master/build/sun50i_h616/debug/bl31/plat_gicv2.o
 .text.plat_ic_get_running_priority
                0x0000000000000000        0x4 /home/lodge/Allwinner/Orangepi-H616/external/cache/sources/arm-trusted-firmware-sunxi-mainline/master/build/sun50i_h616/debug/bl31/plat_gicv2.o
 .text.plat_ic_is_spi
                0x0000000000000000       0x10 /home/lodge/Allwinner/Orangepi-H616/external/cache/sources/arm-trusted-firmware-sunxi-mainline/master/build/sun50i_h616/debug/bl31/plat_gicv2.o
 .text.plat_ic_is_ppi
                0x0000000000000000       0x10 /home/lodge/Allwinner/Orangepi-H616/external/cache/sources/arm-trusted-firmware-sunxi-mainline/master/build/sun50i_h616/debug/bl31/plat_gicv2.o
 .text.plat_ic_is_sgi
                0x0000000000000000        0xc /home/lodge/Allwinner/Orangepi-H616/external/cache/sources/arm-trusted-firmware-sunxi-mainline/master/build/sun50i_h616/debug/bl31/plat_gicv2.o
 .text.plat_ic_get_interrupt_active
                0x0000000000000000        0x4 /home/lodge/Allwinner/Orangepi-H616/external/cache/sources/arm-trusted-firmware-sunxi-mainline/master/build/sun50i_h616/debug/bl31/plat_gicv2.o
 .text.plat_ic_enable_interrupt
                0x0000000000000000        0x4 /home/lodge/Allwinner/Orangepi-H616/external/cache/sources/arm-trusted-firmware-sunxi-mainline/master/build/sun50i_h616/debug/bl31/plat_gicv2.o
 .text.plat_ic_disable_interrupt
                0x0000000000000000        0x4 /home/lodge/Allwinner/Orangepi-H616/external/cache/sources/arm-trusted-firmware-sunxi-mainline/master/build/sun50i_h616/debug/bl31/plat_gicv2.o
 .text.plat_ic_set_interrupt_priority
                0x0000000000000000        0x4 /home/lodge/Allwinner/Orangepi-H616/external/cache/sources/arm-trusted-firmware-sunxi-mainline/master/build/sun50i_h616/debug/bl31/plat_gicv2.o
 .text.plat_ic_has_interrupt_type
                0x0000000000000000        0xc /home/lodge/Allwinner/Orangepi-H616/external/cache/sources/arm-trusted-firmware-sunxi-mainline/master/build/sun50i_h616/debug/bl31/plat_gicv2.o
 .text.plat_ic_set_interrupt_type
                0x0000000000000000       0x2c /home/lodge/Allwinner/Orangepi-H616/external/cache/sources/arm-trusted-firmware-sunxi-mainline/master/build/sun50i_h616/debug/bl31/plat_gicv2.o
 .text.plat_ic_raise_el3_sgi
                0x0000000000000000       0x18 /home/lodge/Allwinner/Orangepi-H616/external/cache/sources/arm-trusted-firmware-sunxi-mainline/master/build/sun50i_h616/debug/bl31/plat_gicv2.o
 .text.plat_ic_set_spi_routing
                0x0000000000000000       0x5c /home/lodge/Allwinner/Orangepi-H616/external/cache/sources/arm-trusted-firmware-sunxi-mainline/master/build/sun50i_h616/debug/bl31/plat_gicv2.o
 .text.plat_ic_set_interrupt_pending
                0x0000000000000000        0x4 /home/lodge/Allwinner/Orangepi-H616/external/cache/sources/arm-trusted-firmware-sunxi-mainline/master/build/sun50i_h616/debug/bl31/plat_gicv2.o
 .text.plat_ic_clear_interrupt_pending
                0x0000000000000000        0x4 /home/lodge/Allwinner/Orangepi-H616/external/cache/sources/arm-trusted-firmware-sunxi-mainline/master/build/sun50i_h616/debug/bl31/plat_gicv2.o
 .text.plat_ic_set_priority_mask
                0x0000000000000000        0x4 /home/lodge/Allwinner/Orangepi-H616/external/cache/sources/arm-trusted-firmware-sunxi-mainline/master/build/sun50i_h616/debug/bl31/plat_gicv2.o
 .text.plat_ic_get_interrupt_id
                0x0000000000000000       0x10 /home/lodge/Allwinner/Orangepi-H616/external/cache/sources/arm-trusted-firmware-sunxi-mainline/master/build/sun50i_h616/debug/bl31/plat_gicv2.o
 .eh_frame      0x0000000000000000      0x220 /home/lodge/Allwinner/Orangepi-H616/external/cache/sources/arm-trusted-firmware-sunxi-mainline/master/build/sun50i_h616/debug/bl31/plat_gicv2.o
 .text          0x0000000000000000        0x0 /home/lodge/Allwinner/Orangepi-H616/external/cache/sources/arm-trusted-firmware-sunxi-mainline/master/build/sun50i_h616/debug/bl31/plat_psci_common.o
 .data          0x0000000000000000        0x0 /home/lodge/Allwinner/Orangepi-H616/external/cache/sources/arm-trusted-firmware-sunxi-mainline/master/build/sun50i_h616/debug/bl31/plat_psci_common.o
 .bss           0x0000000000000000        0x0 /home/lodge/Allwinner/Orangepi-H616/external/cache/sources/arm-trusted-firmware-sunxi-mainline/master/build/sun50i_h616/debug/bl31/plat_psci_common.o
 .eh_frame      0x0000000000000000       0x38 /home/lodge/Allwinner/Orangepi-H616/external/cache/sources/arm-trusted-firmware-sunxi-mainline/master/build/sun50i_h616/debug/bl31/plat_psci_common.o
 .text          0x0000000000000000        0x0 /home/lodge/Allwinner/Orangepi-H616/external/cache/sources/arm-trusted-firmware-sunxi-mainline/master/build/sun50i_h616/debug/bl31/arm_arch_svc_setup.o
 .data          0x0000000000000000        0x0 /home/lodge/Allwinner/Orangepi-H616/external/cache/sources/arm-trusted-firmware-sunxi-mainline/master/build/sun50i_h616/debug/bl31/arm_arch_svc_setup.o
 .bss           0x0000000000000000        0x0 /home/lodge/Allwinner/Orangepi-H616/external/cache/sources/arm-trusted-firmware-sunxi-mainline/master/build/sun50i_h616/debug/bl31/arm_arch_svc_setup.o
 .eh_frame      0x0000000000000000       0x38 /home/lodge/Allwinner/Orangepi-H616/external/cache/sources/arm-trusted-firmware-sunxi-mainline/master/build/sun50i_h616/debug/bl31/arm_arch_svc_setup.o
 .text          0x0000000000000000        0x0 /home/lodge/Allwinner/Orangepi-H616/external/cache/sources/arm-trusted-firmware-sunxi-mainline/master/build/sun50i_h616/debug/bl31/std_svc_setup.o
 .data          0x0000000000000000        0x0 /home/lodge/Allwinner/Orangepi-H616/external/cache/sources/arm-trusted-firmware-sunxi-mainline/master/build/sun50i_h616/debug/bl31/std_svc_setup.o
 .bss           0x0000000000000000        0x0 /home/lodge/Allwinner/Orangepi-H616/external/cache/sources/arm-trusted-firmware-sunxi-mainline/master/build/sun50i_h616/debug/bl31/std_svc_setup.o
 .eh_frame      0x0000000000000000       0x58 /home/lodge/Allwinner/Orangepi-H616/external/cache/sources/arm-trusted-firmware-sunxi-mainline/master/build/sun50i_h616/debug/bl31/std_svc_setup.o
 .text          0x0000000000000000        0x0 /home/lodge/Allwinner/Orangepi-H616/external/cache/sources/arm-trusted-firmware-sunxi-mainline/master/build/sun50i_h616/debug/bl31/bl_common.o
 .data          0x0000000000000000        0x0 /home/lodge/Allwinner/Orangepi-H616/external/cache/sources/arm-trusted-firmware-sunxi-mainline/master/build/sun50i_h616/debug/bl31/bl_common.o
 .bss           0x0000000000000000        0x0 /home/lodge/Allwinner/Orangepi-H616/external/cache/sources/arm-trusted-firmware-sunxi-mainline/master/build/sun50i_h616/debug/bl31/bl_common.o
 .text.page_align
                0x0000000000000000       0x1c /home/lodge/Allwinner/Orangepi-H616/external/cache/sources/arm-trusted-firmware-sunxi-mainline/master/build/sun50i_h616/debug/bl31/bl_common.o
 .rodata.load_auth_image.str1.1
                0x0000000000000000      0x12d /home/lodge/Allwinner/Orangepi-H616/external/cache/sources/arm-trusted-firmware-sunxi-mainline/master/build/sun50i_h616/debug/bl31/bl_common.o
 .text.load_auth_image
                0x0000000000000000      0x1a8 /home/lodge/Allwinner/Orangepi-H616/external/cache/sources/arm-trusted-firmware-sunxi-mainline/master/build/sun50i_h616/debug/bl31/bl_common.o
 .eh_frame      0x0000000000000000       0x80 /home/lodge/Allwinner/Orangepi-H616/external/cache/sources/arm-trusted-firmware-sunxi-mainline/master/build/sun50i_h616/debug/bl31/bl_common.o
 .text          0x0000000000000000        0x0 /home/lodge/Allwinner/Orangepi-H616/external/cache/sources/arm-trusted-firmware-sunxi-mainline/master/build/sun50i_h616/debug/bl31/tf_log.o
 .data          0x0000000000000000        0x0 /home/lodge/Allwinner/Orangepi-H616/external/cache/sources/arm-trusted-firmware-sunxi-mainline/master/build/sun50i_h616/debug/bl31/tf_log.o
 .bss           0x0000000000000000        0x0 /home/lodge/Allwinner/Orangepi-H616/external/cache/sources/arm-trusted-firmware-sunxi-mainline/master/build/sun50i_h616/debug/bl31/tf_log.o
 .text.tf_log_set_max_level
                0x0000000000000000       0x50 /home/lodge/Allwinner/Orangepi-H616/external/cache/sources/arm-trusted-firmware-sunxi-mainline/master/build/sun50i_h616/debug/bl31/tf_log.o
 .eh_frame      0x0000000000000000       0x88 /home/lodge/Allwinner/Orangepi-H616/external/cache/sources/arm-trusted-firmware-sunxi-mainline/master/build/sun50i_h616/debug/bl31/tf_log.o
 .text          0x0000000000000000        0x0 /home/lodge/Allwinner/Orangepi-H616/external/cache/sources/arm-trusted-firmware-sunxi-mainline/master/build/sun50i_h616/debug/bl31/multi_console.o
 .data          0x0000000000000000        0x0 /home/lodge/Allwinner/Orangepi-H616/external/cache/sources/arm-trusted-firmware-sunxi-mainline/master/build/sun50i_h616/debug/bl31/multi_console.o
 .bss           0x0000000000000000        0x0 /home/lodge/Allwinner/Orangepi-H616/external/cache/sources/arm-trusted-firmware-sunxi-mainline/master/build/sun50i_h616/debug/bl31/multi_console.o
 .text.console_unregister
                0x0000000000000000       0x54 /home/lodge/Allwinner/Orangepi-H616/external/cache/sources/arm-trusted-firmware-sunxi-mainline/master/build/sun50i_h616/debug/bl31/multi_console.o
 .text.console_set_scope
                0x0000000000000000       0x34 /home/lodge/Allwinner/Orangepi-H616/external/cache/sources/arm-trusted-firmware-sunxi-mainline/master/build/sun50i_h616/debug/bl31/multi_console.o
 .text.console_getc
                0x0000000000000000       0x78 /home/lodge/Allwinner/Orangepi-H616/external/cache/sources/arm-trusted-firmware-sunxi-mainline/master/build/sun50i_h616/debug/bl31/multi_console.o
 .eh_frame      0x0000000000000000      0x138 /home/lodge/Allwinner/Orangepi-H616/external/cache/sources/arm-trusted-firmware-sunxi-mainline/master/build/sun50i_h616/debug/bl31/multi_console.o
 .text          0x0000000000000000        0x0 /home/lodge/Allwinner/Orangepi-H616/external/cache/sources/arm-trusted-firmware-sunxi-mainline/master/build/sun50i_h616/debug/bl31/plat_bl_common.o
 .data          0x0000000000000000        0x0 /home/lodge/Allwinner/Orangepi-H616/external/cache/sources/arm-trusted-firmware-sunxi-mainline/master/build/sun50i_h616/debug/bl31/plat_bl_common.o
 .bss           0x0000000000000000        0x0 /home/lodge/Allwinner/Orangepi-H616/external/cache/sources/arm-trusted-firmware-sunxi-mainline/master/build/sun50i_h616/debug/bl31/plat_bl_common.o
 .text.bl2_el3_plat_prepare_exit
                0x0000000000000000        0x4 /home/lodge/Allwinner/Orangepi-H616/external/cache/sources/arm-trusted-firmware-sunxi-mainline/master/build/sun50i_h616/debug/bl31/plat_bl_common.o
 .text.plat_error_handler
                0x0000000000000000        0x8 /home/lodge/Allwinner/Orangepi-H616/external/cache/sources/arm-trusted-firmware-sunxi-mainline/master/build/sun50i_h616/debug/bl31/plat_bl_common.o
 .text.bl2_plat_preload_setup
                0x0000000000000000        0x4 /home/lodge/Allwinner/Orangepi-H616/external/cache/sources/arm-trusted-firmware-sunxi-mainline/master/build/sun50i_h616/debug/bl31/plat_bl_common.o
 .text.bl2_plat_handle_pre_image_load
                0x0000000000000000        0x8 /home/lodge/Allwinner/Orangepi-H616/external/cache/sources/arm-trusted-firmware-sunxi-mainline/master/build/sun50i_h616/debug/bl31/plat_bl_common.o
 .text.bl2_plat_handle_post_image_load
                0x0000000000000000        0x8 /home/lodge/Allwinner/Orangepi-H616/external/cache/sources/arm-trusted-firmware-sunxi-mainline/master/build/sun50i_h616/debug/bl31/plat_bl_common.o
 .text.plat_try_next_boot_source
                0x0000000000000000        0x8 /home/lodge/Allwinner/Orangepi-H616/external/cache/sources/arm-trusted-firmware-sunxi-mainline/master/build/sun50i_h616/debug/bl31/plat_bl_common.o
 .rodata.plat_get_enc_key_info.str1.1
                0x0000000000000000       0x3e /home/lodge/Allwinner/Orangepi-H616/external/cache/sources/arm-trusted-firmware-sunxi-mainline/master/build/sun50i_h616/debug/bl31/plat_bl_common.o
 .text.plat_get_enc_key_info
                0x0000000000000000       0x7c /home/lodge/Allwinner/Orangepi-H616/external/cache/sources/arm-trusted-firmware-sunxi-mainline/master/build/sun50i_h616/debug/bl31/plat_bl_common.o
 .text.setup_page_tables
                0x0000000000000000       0x28 /home/lodge/Allwinner/Orangepi-H616/external/cache/sources/arm-trusted-firmware-sunxi-mainline/master/build/sun50i_h616/debug/bl31/plat_bl_common.o
 .eh_frame      0x0000000000000000      0x118 /home/lodge/Allwinner/Orangepi-H616/external/cache/sources/arm-trusted-firmware-sunxi-mainline/master/build/sun50i_h616/debug/bl31/plat_bl_common.o
 .text          0x0000000000000000        0x0 /home/lodge/Allwinner/Orangepi-H616/external/cache/sources/arm-trusted-firmware-sunxi-mainline/master/build/sun50i_h616/debug/bl31/plat_log_common.o
 .data          0x0000000000000000        0x0 /home/lodge/Allwinner/Orangepi-H616/external/cache/sources/arm-trusted-firmware-sunxi-mainline/master/build/sun50i_h616/debug/bl31/plat_log_common.o
 .bss           0x0000000000000000        0x0 /home/lodge/Allwinner/Orangepi-H616/external/cache/sources/arm-trusted-firmware-sunxi-mainline/master/build/sun50i_h616/debug/bl31/plat_log_common.o
 .eh_frame      0x0000000000000000       0x28 /home/lodge/Allwinner/Orangepi-H616/external/cache/sources/arm-trusted-firmware-sunxi-mainline/master/build/sun50i_h616/debug/bl31/plat_log_common.o
 .text          0x0000000000000000        0x0 /home/lodge/Allwinner/Orangepi-H616/external/cache/sources/arm-trusted-firmware-sunxi-mainline/master/build/sun50i_h616/debug/bl31/plat_common.o
 .data          0x0000000000000000        0x0 /home/lodge/Allwinner/Orangepi-H616/external/cache/sources/arm-trusted-firmware-sunxi-mainline/master/build/sun50i_h616/debug/bl31/plat_common.o
 .bss           0x0000000000000000        0x0 /home/lodge/Allwinner/Orangepi-H616/external/cache/sources/arm-trusted-firmware-sunxi-mainline/master/build/sun50i_h616/debug/bl31/plat_common.o
 .rodata.platform_core_pos_helper.str1.1
                0x0000000000000000       0x22 /home/lodge/Allwinner/Orangepi-H616/external/cache/sources/arm-trusted-firmware-sunxi-mainline/master/build/sun50i_h616/debug/bl31/plat_common.o
 .text.platform_core_pos_helper
                0x0000000000000000       0x28 /home/lodge/Allwinner/Orangepi-H616/external/cache/sources/arm-trusted-firmware-sunxi-mainline/master/build/sun50i_h616/debug/bl31/plat_common.o
 .eh_frame      0x0000000000000000       0x80 /home/lodge/Allwinner/Orangepi-H616/external/cache/sources/arm-trusted-firmware-sunxi-mainline/master/build/sun50i_h616/debug/bl31/plat_common.o
 .text          0x0000000000000000        0x0 /home/lodge/Allwinner/Orangepi-H616/external/cache/sources/arm-trusted-firmware-sunxi-mainline/master/build/sun50i_h616/debug/bl31/popcountdi2.o
 .data          0x0000000000000000        0x0 /home/lodge/Allwinner/Orangepi-H616/external/cache/sources/arm-trusted-firmware-sunxi-mainline/master/build/sun50i_h616/debug/bl31/popcountdi2.o
 .bss           0x0000000000000000        0x0 /home/lodge/Allwinner/Orangepi-H616/external/cache/sources/arm-trusted-firmware-sunxi-mainline/master/build/sun50i_h616/debug/bl31/popcountdi2.o
 .text.__popcountdi2
                0x0000000000000000       0x3c /home/lodge/Allwinner/Orangepi-H616/external/cache/sources/arm-trusted-firmware-sunxi-mainline/master/build/sun50i_h616/debug/bl31/popcountdi2.o
 .debug_info    0x0000000000000000      0x12e /home/lodge/Allwinner/Orangepi-H616/external/cache/sources/arm-trusted-firmware-sunxi-mainline/master/build/sun50i_h616/debug/bl31/popcountdi2.o
 .debug_abbrev  0x0000000000000000       0x7d /home/lodge/Allwinner/Orangepi-H616/external/cache/sources/arm-trusted-firmware-sunxi-mainline/master/build/sun50i_h616/debug/bl31/popcountdi2.o
 .debug_loc     0x0000000000000000      0x30b /home/lodge/Allwinner/Orangepi-H616/external/cache/sources/arm-trusted-firmware-sunxi-mainline/master/build/sun50i_h616/debug/bl31/popcountdi2.o
 .debug_aranges
                0x0000000000000000       0x30 /home/lodge/Allwinner/Orangepi-H616/external/cache/sources/arm-trusted-firmware-sunxi-mainline/master/build/sun50i_h616/debug/bl31/popcountdi2.o
 .debug_ranges  0x0000000000000000       0x20 /home/lodge/Allwinner/Orangepi-H616/external/cache/sources/arm-trusted-firmware-sunxi-mainline/master/build/sun50i_h616/debug/bl31/popcountdi2.o
 .debug_line    0x0000000000000000       0xb3 /home/lodge/Allwinner/Orangepi-H616/external/cache/sources/arm-trusted-firmware-sunxi-mainline/master/build/sun50i_h616/debug/bl31/popcountdi2.o
 .debug_str     0x0000000000000000      0x28f /home/lodge/Allwinner/Orangepi-H616/external/cache/sources/arm-trusted-firmware-sunxi-mainline/master/build/sun50i_h616/debug/bl31/popcountdi2.o
 .comment       0x0000000000000000       0x5b /home/lodge/Allwinner/Orangepi-H616/external/cache/sources/arm-trusted-firmware-sunxi-mainline/master/build/sun50i_h616/debug/bl31/popcountdi2.o
 .note.GNU-stack
                0x0000000000000000        0x0 /home/lodge/Allwinner/Orangepi-H616/external/cache/sources/arm-trusted-firmware-sunxi-mainline/master/build/sun50i_h616/debug/bl31/popcountdi2.o
 .eh_frame      0x0000000000000000       0x28 /home/lodge/Allwinner/Orangepi-H616/external/cache/sources/arm-trusted-firmware-sunxi-mainline/master/build/sun50i_h616/debug/bl31/popcountdi2.o
 .text          0x0000000000000000        0x0 /home/lodge/Allwinner/Orangepi-H616/external/cache/sources/arm-trusted-firmware-sunxi-mainline/master/build/sun50i_h616/debug/bl31/popcountsi2.o
 .data          0x0000000000000000        0x0 /home/lodge/Allwinner/Orangepi-H616/external/cache/sources/arm-trusted-firmware-sunxi-mainline/master/build/sun50i_h616/debug/bl31/popcountsi2.o
 .bss           0x0000000000000000        0x0 /home/lodge/Allwinner/Orangepi-H616/external/cache/sources/arm-trusted-firmware-sunxi-mainline/master/build/sun50i_h616/debug/bl31/popcountsi2.o
 .text.__popcountsi2
                0x0000000000000000       0x34 /home/lodge/Allwinner/Orangepi-H616/external/cache/sources/arm-trusted-firmware-sunxi-mainline/master/build/sun50i_h616/debug/bl31/popcountsi2.o
 .debug_info    0x0000000000000000      0x103 /home/lodge/Allwinner/Orangepi-H616/external/cache/sources/arm-trusted-firmware-sunxi-mainline/master/build/sun50i_h616/debug/bl31/popcountsi2.o
 .debug_abbrev  0x0000000000000000       0x7d /home/lodge/Allwinner/Orangepi-H616/external/cache/sources/arm-trusted-firmware-sunxi-mainline/master/build/sun50i_h616/debug/bl31/popcountsi2.o
 .debug_loc     0x0000000000000000      0x186 /home/lodge/Allwinner/Orangepi-H616/external/cache/sources/arm-trusted-firmware-sunxi-mainline/master/build/sun50i_h616/debug/bl31/popcountsi2.o
 .debug_aranges
                0x0000000000000000       0x30 /home/lodge/Allwinner/Orangepi-H616/external/cache/sources/arm-trusted-firmware-sunxi-mainline/master/build/sun50i_h616/debug/bl31/popcountsi2.o
 .debug_ranges  0x0000000000000000       0x20 /home/lodge/Allwinner/Orangepi-H616/external/cache/sources/arm-trusted-firmware-sunxi-mainline/master/build/sun50i_h616/debug/bl31/popcountsi2.o
 .debug_line    0x0000000000000000       0xa8 /home/lodge/Allwinner/Orangepi-H616/external/cache/sources/arm-trusted-firmware-sunxi-mainline/master/build/sun50i_h616/debug/bl31/popcountsi2.o
 .debug_str     0x0000000000000000      0x281 /home/lodge/Allwinner/Orangepi-H616/external/cache/sources/arm-trusted-firmware-sunxi-mainline/master/build/sun50i_h616/debug/bl31/popcountsi2.o
 .comment       0x0000000000000000       0x5b /home/lodge/Allwinner/Orangepi-H616/external/cache/sources/arm-trusted-firmware-sunxi-mainline/master/build/sun50i_h616/debug/bl31/popcountsi2.o
 .note.GNU-stack
                0x0000000000000000        0x0 /home/lodge/Allwinner/Orangepi-H616/external/cache/sources/arm-trusted-firmware-sunxi-mainline/master/build/sun50i_h616/debug/bl31/popcountsi2.o
 .eh_frame      0x0000000000000000       0x28 /home/lodge/Allwinner/Orangepi-H616/external/cache/sources/arm-trusted-firmware-sunxi-mainline/master/build/sun50i_h616/debug/bl31/popcountsi2.o
 .text          0x0000000000000000        0x0 /home/lodge/Allwinner/Orangepi-H616/external/cache/sources/arm-trusted-firmware-sunxi-mainline/master/build/sun50i_h616/debug/bl31/xlat_tables_arch.o
 .data          0x0000000000000000        0x0 /home/lodge/Allwinner/Orangepi-H616/external/cache/sources/arm-trusted-firmware-sunxi-mainline/master/build/sun50i_h616/debug/bl31/xlat_tables_arch.o
 .bss           0x0000000000000000        0x0 /home/lodge/Allwinner/Orangepi-H616/external/cache/sources/arm-trusted-firmware-sunxi-mainline/master/build/sun50i_h616/debug/bl31/xlat_tables_arch.o
 .text.xlat_arch_is_granule_size_supported
                0x0000000000000000       0x48 /home/lodge/Allwinner/Orangepi-H616/external/cache/sources/arm-trusted-firmware-sunxi-mainline/master/build/sun50i_h616/debug/bl31/xlat_tables_arch.o
 .text.xlat_arch_get_max_supported_granule_size
                0x0000000000000000       0x64 /home/lodge/Allwinner/Orangepi-H616/external/cache/sources/arm-trusted-firmware-sunxi-mainline/master/build/sun50i_h616/debug/bl31/xlat_tables_arch.o
 .text.is_dcache_enabled
                0x0000000000000000        0xc /home/lodge/Allwinner/Orangepi-H616/external/cache/sources/arm-trusted-firmware-sunxi-mainline/master/build/sun50i_h616/debug/bl31/xlat_tables_arch.o
 .text.xlat_arch_tlbi_va_sync
                0x0000000000000000        0xc /home/lodge/Allwinner/Orangepi-H616/external/cache/sources/arm-trusted-firmware-sunxi-mainline/master/build/sun50i_h616/debug/bl31/xlat_tables_arch.o
 .text.xlat_arch_tlbi_va
                0x0000000000000000       0xa0 /home/lodge/Allwinner/Orangepi-H616/external/cache/sources/arm-trusted-firmware-sunxi-mainline/master/build/sun50i_h616/debug/bl31/xlat_tables_arch.o
 .eh_frame      0x0000000000000000      0x190 /home/lodge/Allwinner/Orangepi-H616/external/cache/sources/arm-trusted-firmware-sunxi-mainline/master/build/sun50i_h616/debug/bl31/xlat_tables_arch.o
 .text          0x0000000000000000        0x0 /home/lodge/Allwinner/Orangepi-H616/external/cache/sources/arm-trusted-firmware-sunxi-mainline/master/build/sun50i_h616/debug/bl31/xlat_tables_context.o
 .data          0x0000000000000000        0x0 /home/lodge/Allwinner/Orangepi-H616/external/cache/sources/arm-trusted-firmware-sunxi-mainline/master/build/sun50i_h616/debug/bl31/xlat_tables_context.o
 .bss           0x0000000000000000        0x0 /home/lodge/Allwinner/Orangepi-H616/external/cache/sources/arm-trusted-firmware-sunxi-mainline/master/build/sun50i_h616/debug/bl31/xlat_tables_context.o
 .text.mmap_add_region_alloc_va
                0x0000000000000000       0x48 /home/lodge/Allwinner/Orangepi-H616/external/cache/sources/arm-trusted-firmware-sunxi-mainline/master/build/sun50i_h616/debug/bl31/xlat_tables_context.o
 .text.mmap_add_alloc_va
                0x0000000000000000       0x58 /home/lodge/Allwinner/Orangepi-H616/external/cache/sources/arm-trusted-firmware-sunxi-mainline/master/build/sun50i_h616/debug/bl31/xlat_tables_context.o
 .text.xlat_get_mem_attributes
                0x0000000000000000       0x14 /home/lodge/Allwinner/Orangepi-H616/external/cache/sources/arm-trusted-firmware-sunxi-mainline/master/build/sun50i_h616/debug/bl31/xlat_tables_context.o
 .text.xlat_change_mem_attributes
                0x0000000000000000       0x18 /home/lodge/Allwinner/Orangepi-H616/external/cache/sources/arm-trusted-firmware-sunxi-mainline/master/build/sun50i_h616/debug/bl31/xlat_tables_context.o
 .text.enable_mmu_el1
                0x0000000000000000       0x48 /home/lodge/Allwinner/Orangepi-H616/external/cache/sources/arm-trusted-firmware-sunxi-mainline/master/build/sun50i_h616/debug/bl31/xlat_tables_context.o
 .text.enable_mmu_el2
                0x0000000000000000       0x48 /home/lodge/Allwinner/Orangepi-H616/external/cache/sources/arm-trusted-firmware-sunxi-mainline/master/build/sun50i_h616/debug/bl31/xlat_tables_context.o
 .text.enable_mmu
                0x0000000000000000        0x4 /home/lodge/Allwinner/Orangepi-H616/external/cache/sources/arm-trusted-firmware-sunxi-mainline/master/build/sun50i_h616/debug/bl31/xlat_tables_context.o
 .eh_frame      0x0000000000000000      0x160 /home/lodge/Allwinner/Orangepi-H616/external/cache/sources/arm-trusted-firmware-sunxi-mainline/master/build/sun50i_h616/debug/bl31/xlat_tables_context.o
 .text          0x0000000000000000        0x0 /home/lodge/Allwinner/Orangepi-H616/external/cache/sources/arm-trusted-firmware-sunxi-mainline/master/build/sun50i_h616/debug/bl31/xlat_tables_core.o
 .data          0x0000000000000000        0x0 /home/lodge/Allwinner/Orangepi-H616/external/cache/sources/arm-trusted-firmware-sunxi-mainline/master/build/sun50i_h616/debug/bl31/xlat_tables_core.o
 .bss           0x0000000000000000        0x0 /home/lodge/Allwinner/Orangepi-H616/external/cache/sources/arm-trusted-firmware-sunxi-mainline/master/build/sun50i_h616/debug/bl31/xlat_tables_core.o
 .text.mmap_add_region_alloc_va_ctx
                0x0000000000000000       0x98 /home/lodge/Allwinner/Orangepi-H616/external/cache/sources/arm-trusted-firmware-sunxi-mainline/master/build/sun50i_h616/debug/bl31/xlat_tables_core.o
 .eh_frame      0x0000000000000000      0x130 /home/lodge/Allwinner/Orangepi-H616/external/cache/sources/arm-trusted-firmware-sunxi-mainline/master/build/sun50i_h616/debug/bl31/xlat_tables_core.o
 .text          0x0000000000000000        0x0 /home/lodge/Allwinner/Orangepi-H616/external/cache/sources/arm-trusted-firmware-sunxi-mainline/master/build/sun50i_h616/debug/bl31/xlat_tables_utils.o
 .data          0x0000000000000000        0x0 /home/lodge/Allwinner/Orangepi-H616/external/cache/sources/arm-trusted-firmware-sunxi-mainline/master/build/sun50i_h616/debug/bl31/xlat_tables_utils.o
 .bss           0x0000000000000000        0x0 /home/lodge/Allwinner/Orangepi-H616/external/cache/sources/arm-trusted-firmware-sunxi-mainline/master/build/sun50i_h616/debug/bl31/xlat_tables_utils.o
 .rodata.find_xlat_table_entry.str1.1
                0x0000000000000000       0x53 /home/lodge/Allwinner/Orangepi-H616/external/cache/sources/arm-trusted-firmware-sunxi-mainline/master/build/sun50i_h616/debug/bl31/xlat_tables_utils.o
 .text.find_xlat_table_entry
                0x0000000000000000       0xe0 /home/lodge/Allwinner/Orangepi-H616/external/cache/sources/arm-trusted-firmware-sunxi-mainline/master/build/sun50i_h616/debug/bl31/xlat_tables_utils.o
 .rodata.xlat_get_mem_attributes_internal.str1.1
                0x0000000000000000       0x1f /home/lodge/Allwinner/Orangepi-H616/external/cache/sources/arm-trusted-firmware-sunxi-mainline/master/build/sun50i_h616/debug/bl31/xlat_tables_utils.o
 .text.xlat_get_mem_attributes_internal
                0x0000000000000000      0x198 /home/lodge/Allwinner/Orangepi-H616/external/cache/sources/arm-trusted-firmware-sunxi-mainline/master/build/sun50i_h616/debug/bl31/xlat_tables_utils.o
 .text.xlat_get_mem_attributes_ctx
                0x0000000000000000       0x10 /home/lodge/Allwinner/Orangepi-H616/external/cache/sources/arm-trusted-firmware-sunxi-mainline/master/build/sun50i_h616/debug/bl31/xlat_tables_utils.o
 .rodata.xlat_change_mem_attributes_ctx.str1.1
                0x0000000000000000      0x152 /home/lodge/Allwinner/Orangepi-H616/external/cache/sources/arm-trusted-firmware-sunxi-mainline/master/build/sun50i_h616/debug/bl31/xlat_tables_utils.o
 .text.xlat_change_mem_attributes_ctx
                0x0000000000000000      0x254 /home/lodge/Allwinner/Orangepi-H616/external/cache/sources/arm-trusted-firmware-sunxi-mainline/master/build/sun50i_h616/debug/bl31/xlat_tables_utils.o
 .rodata.__func__.2602
                0x0000000000000000       0x1f /home/lodge/Allwinner/Orangepi-H616/external/cache/sources/arm-trusted-firmware-sunxi-mainline/master/build/sun50i_h616/debug/bl31/xlat_tables_utils.o
 .eh_frame      0x0000000000000000       0xe0 /home/lodge/Allwinner/Orangepi-H616/external/cache/sources/arm-trusted-firmware-sunxi-mainline/master/build/sun50i_h616/debug/bl31/xlat_tables_utils.o
 .text          0x0000000000000000        0x0 /home/lodge/Allwinner/Orangepi-H616/external/cache/sources/arm-trusted-firmware-sunxi-mainline/master/build/sun50i_h616/debug/bl31/sunxi_common.o
 .data          0x0000000000000000        0x0 /home/lodge/Allwinner/Orangepi-H616/external/cache/sources/arm-trusted-firmware-sunxi-mainline/master/build/sun50i_h616/debug/bl31/sunxi_common.o
 .bss           0x0000000000000000        0x0 /home/lodge/Allwinner/Orangepi-H616/external/cache/sources/arm-trusted-firmware-sunxi-mainline/master/build/sun50i_h616/debug/bl31/sunxi_common.o
 .text.sunxi_set_gpio_out
                0x0000000000000000       0xa8 /home/lodge/Allwinner/Orangepi-H616/external/cache/sources/arm-trusted-firmware-sunxi-mainline/master/build/sun50i_h616/debug/bl31/sunxi_common.o
 .eh_frame      0x0000000000000000       0x98 /home/lodge/Allwinner/Orangepi-H616/external/cache/sources/arm-trusted-firmware-sunxi-mainline/master/build/sun50i_h616/debug/bl31/sunxi_common.o
 .text          0x0000000000000000        0x0 /home/lodge/Allwinner/Orangepi-H616/external/cache/sources/arm-trusted-firmware-sunxi-mainline/master/build/sun50i_h616/debug/bl31/bl31_entrypoint.o
 .data          0x0000000000000000        0x0 /home/lodge/Allwinner/Orangepi-H616/external/cache/sources/arm-trusted-firmware-sunxi-mainline/master/build/sun50i_h616/debug/bl31/bl31_entrypoint.o
 .bss           0x0000000000000000        0x0 /home/lodge/Allwinner/Orangepi-H616/external/cache/sources/arm-trusted-firmware-sunxi-mainline/master/build/sun50i_h616/debug/bl31/bl31_entrypoint.o
 .text          0x0000000000000000        0x0 /home/lodge/Allwinner/Orangepi-H616/external/cache/sources/arm-trusted-firmware-sunxi-mainline/master/build/sun50i_h616/debug/bl31/crash_reporting.o
 .data          0x0000000000000000        0x0 /home/lodge/Allwinner/Orangepi-H616/external/cache/sources/arm-trusted-firmware-sunxi-mainline/master/build/sun50i_h616/debug/bl31/crash_reporting.o
 .bss           0x0000000000000000        0x0 /home/lodge/Allwinner/Orangepi-H616/external/cache/sources/arm-trusted-firmware-sunxi-mainline/master/build/sun50i_h616/debug/bl31/crash_reporting.o
 .text.asm.elx_panic
                0x0000000000000000       0xb8 /home/lodge/Allwinner/Orangepi-H616/external/cache/sources/arm-trusted-firmware-sunxi-mainline/master/build/sun50i_h616/debug/bl31/crash_reporting.o
 .text          0x0000000000000000        0x0 /home/lodge/Allwinner/Orangepi-H616/external/cache/sources/arm-trusted-firmware-sunxi-mainline/master/build/sun50i_h616/debug/bl31/ea_delegate.o
 .data          0x0000000000000000        0x0 /home/lodge/Allwinner/Orangepi-H616/external/cache/sources/arm-trusted-firmware-sunxi-mainline/master/build/sun50i_h616/debug/bl31/ea_delegate.o
 .bss           0x0000000000000000        0x0 /home/lodge/Allwinner/Orangepi-H616/external/cache/sources/arm-trusted-firmware-sunxi-mainline/master/build/sun50i_h616/debug/bl31/ea_delegate.o
 .text.asm.handle_lower_el_ea_esb
                0x0000000000000000        0xc /home/lodge/Allwinner/Orangepi-H616/external/cache/sources/arm-trusted-firmware-sunxi-mainline/master/build/sun50i_h616/debug/bl31/ea_delegate.o
 .text          0x0000000000000000        0x0 /home/lodge/Allwinner/Orangepi-H616/external/cache/sources/arm-trusted-firmware-sunxi-mainline/master/build/sun50i_h616/debug/bl31/runtime_exceptions.o
 .data          0x0000000000000000        0x0 /home/lodge/Allwinner/Orangepi-H616/external/cache/sources/arm-trusted-firmware-sunxi-mainline/master/build/sun50i_h616/debug/bl31/runtime_exceptions.o
 .bss           0x0000000000000000        0x0 /home/lodge/Allwinner/Orangepi-H616/external/cache/sources/arm-trusted-firmware-sunxi-mainline/master/build/sun50i_h616/debug/bl31/runtime_exceptions.o
 .text          0x0000000000000000        0x0 /home/lodge/Allwinner/Orangepi-H616/external/cache/sources/arm-trusted-firmware-sunxi-mainline/master/build/sun50i_h616/debug/bl31/cortex_a53.o
 .bss           0x0000000000000000        0x0 /home/lodge/Allwinner/Orangepi-H616/external/cache/sources/arm-trusted-firmware-sunxi-mainline/master/build/sun50i_h616/debug/bl31/cortex_a53.o
 .rodata.gic_reg_name
                0x0000000000000000       0x92 /home/lodge/Allwinner/Orangepi-H616/external/cache/sources/arm-trusted-firmware-sunxi-mainline/master/build/sun50i_h616/debug/bl31/cortex_a53.o
 .text.asm.errata_a53_826319_wa
                0x0000000000000000       0x20 /home/lodge/Allwinner/Orangepi-H616/external/cache/sources/arm-trusted-firmware-sunxi-mainline/master/build/sun50i_h616/debug/bl31/cortex_a53.o
 .text          0x0000000000000000        0x0 /home/lodge/Allwinner/Orangepi-H616/external/cache/sources/arm-trusted-firmware-sunxi-mainline/master/build/sun50i_h616/debug/bl31/cpu_helpers.o
 .data          0x0000000000000000        0x0 /home/lodge/Allwinner/Orangepi-H616/external/cache/sources/arm-trusted-firmware-sunxi-mainline/master/build/sun50i_h616/debug/bl31/cpu_helpers.o
 .bss           0x0000000000000000        0x0 /home/lodge/Allwinner/Orangepi-H616/external/cache/sources/arm-trusted-firmware-sunxi-mainline/master/build/sun50i_h616/debug/bl31/cpu_helpers.o
 .text.asm.cpu_rev_var_range
                0x0000000000000000       0x24 /home/lodge/Allwinner/Orangepi-H616/external/cache/sources/arm-trusted-firmware-sunxi-mainline/master/build/sun50i_h616/debug/bl31/cpu_helpers.o
 .text.asm.wa_cve_2018_3639_get_disable_ptr
                0x0000000000000000       0x38 /home/lodge/Allwinner/Orangepi-H616/external/cache/sources/arm-trusted-firmware-sunxi-mainline/master/build/sun50i_h616/debug/bl31/cpu_helpers.o
 .text          0x0000000000000000        0x0 /home/lodge/Allwinner/Orangepi-H616/external/cache/sources/arm-trusted-firmware-sunxi-mainline/master/build/sun50i_h616/debug/bl31/dsu_helpers.o
 .data          0x0000000000000000        0x0 /home/lodge/Allwinner/Orangepi-H616/external/cache/sources/arm-trusted-firmware-sunxi-mainline/master/build/sun50i_h616/debug/bl31/dsu_helpers.o
 .bss           0x0000000000000000        0x0 /home/lodge/Allwinner/Orangepi-H616/external/cache/sources/arm-trusted-firmware-sunxi-mainline/master/build/sun50i_h616/debug/bl31/dsu_helpers.o
 .text.asm.check_errata_dsu_798953
                0x0000000000000000       0x20 /home/lodge/Allwinner/Orangepi-H616/external/cache/sources/arm-trusted-firmware-sunxi-mainline/master/build/sun50i_h616/debug/bl31/dsu_helpers.o
 .text.asm.errata_dsu_798953_wa
                0x0000000000000000       0x20 /home/lodge/Allwinner/Orangepi-H616/external/cache/sources/arm-trusted-firmware-sunxi-mainline/master/build/sun50i_h616/debug/bl31/dsu_helpers.o
 .text.asm.is_scu_present_in_dsu
                0x0000000000000000        0x8 /home/lodge/Allwinner/Orangepi-H616/external/cache/sources/arm-trusted-firmware-sunxi-mainline/master/build/sun50i_h616/debug/bl31/dsu_helpers.o
 .text.asm.check_errata_dsu_936184
                0x0000000000000000       0x38 /home/lodge/Allwinner/Orangepi-H616/external/cache/sources/arm-trusted-firmware-sunxi-mainline/master/build/sun50i_h616/debug/bl31/dsu_helpers.o
 .text.asm.errata_dsu_936184_wa
                0x0000000000000000       0x30 /home/lodge/Allwinner/Orangepi-H616/external/cache/sources/arm-trusted-firmware-sunxi-mainline/master/build/sun50i_h616/debug/bl31/dsu_helpers.o
 .debug_line    0x0000000000000000       0xc5 /home/lodge/Allwinner/Orangepi-H616/external/cache/sources/arm-trusted-firmware-sunxi-mainline/master/build/sun50i_h616/debug/bl31/dsu_helpers.o
 .debug_info    0x0000000000000000       0x22 /home/lodge/Allwinner/Orangepi-H616/external/cache/sources/arm-trusted-firmware-sunxi-mainline/master/build/sun50i_h616/debug/bl31/dsu_helpers.o
 .debug_abbrev  0x0000000000000000       0x12 /home/lodge/Allwinner/Orangepi-H616/external/cache/sources/arm-trusted-firmware-sunxi-mainline/master/build/sun50i_h616/debug/bl31/dsu_helpers.o
 .debug_aranges
                0x0000000000000000       0x70 /home/lodge/Allwinner/Orangepi-H616/external/cache/sources/arm-trusted-firmware-sunxi-mainline/master/build/sun50i_h616/debug/bl31/dsu_helpers.o
 .debug_str     0x0000000000000000       0x93 /home/lodge/Allwinner/Orangepi-H616/external/cache/sources/arm-trusted-firmware-sunxi-mainline/master/build/sun50i_h616/debug/bl31/dsu_helpers.o
 .debug_ranges  0x0000000000000000       0x70 /home/lodge/Allwinner/Orangepi-H616/external/cache/sources/arm-trusted-firmware-sunxi-mainline/master/build/sun50i_h616/debug/bl31/dsu_helpers.o
 .debug_frame   0x0000000000000000       0x88 /home/lodge/Allwinner/Orangepi-H616/external/cache/sources/arm-trusted-firmware-sunxi-mainline/master/build/sun50i_h616/debug/bl31/dsu_helpers.o
 .text          0x0000000000000000        0x0 /home/lodge/Allwinner/Orangepi-H616/external/cache/sources/arm-trusted-firmware-sunxi-mainline/master/build/sun50i_h616/debug/bl31/wa_cve_2017_5715_bpiall.o
 .data          0x0000000000000000        0x0 /home/lodge/Allwinner/Orangepi-H616/external/cache/sources/arm-trusted-firmware-sunxi-mainline/master/build/sun50i_h616/debug/bl31/wa_cve_2017_5715_bpiall.o
 .bss           0x0000000000000000        0x0 /home/lodge/Allwinner/Orangepi-H616/external/cache/sources/arm-trusted-firmware-sunxi-mainline/master/build/sun50i_h616/debug/bl31/wa_cve_2017_5715_bpiall.o
 .vectors       0x0000000000000000     0x1000 /home/lodge/Allwinner/Orangepi-H616/external/cache/sources/arm-trusted-firmware-sunxi-mainline/master/build/sun50i_h616/debug/bl31/wa_cve_2017_5715_bpiall.o
 .text.asm.bpiall_ret_sync_exception_aarch32_tail
                0x0000000000000000        0x8 /home/lodge/Allwinner/Orangepi-H616/external/cache/sources/arm-trusted-firmware-sunxi-mainline/master/build/sun50i_h616/debug/bl31/wa_cve_2017_5715_bpiall.o
 .debug_line    0x0000000000000000       0xe1 /home/lodge/Allwinner/Orangepi-H616/external/cache/sources/arm-trusted-firmware-sunxi-mainline/master/build/sun50i_h616/debug/bl31/wa_cve_2017_5715_bpiall.o
 .debug_info    0x0000000000000000       0x22 /home/lodge/Allwinner/Orangepi-H616/external/cache/sources/arm-trusted-firmware-sunxi-mainline/master/build/sun50i_h616/debug/bl31/wa_cve_2017_5715_bpiall.o
 .debug_abbrev  0x0000000000000000       0x12 /home/lodge/Allwinner/Orangepi-H616/external/cache/sources/arm-trusted-firmware-sunxi-mainline/master/build/sun50i_h616/debug/bl31/wa_cve_2017_5715_bpiall.o
 .debug_aranges
                0x0000000000000000       0x40 /home/lodge/Allwinner/Orangepi-H616/external/cache/sources/arm-trusted-firmware-sunxi-mainline/master/build/sun50i_h616/debug/bl31/wa_cve_2017_5715_bpiall.o
 .debug_str     0x0000000000000000       0x9f /home/lodge/Allwinner/Orangepi-H616/external/cache/sources/arm-trusted-firmware-sunxi-mainline/master/build/sun50i_h616/debug/bl31/wa_cve_2017_5715_bpiall.o
 .debug_ranges  0x0000000000000000       0x40 /home/lodge/Allwinner/Orangepi-H616/external/cache/sources/arm-trusted-firmware-sunxi-mainline/master/build/sun50i_h616/debug/bl31/wa_cve_2017_5715_bpiall.o
 .debug_frame   0x0000000000000000      0x328 /home/lodge/Allwinner/Orangepi-H616/external/cache/sources/arm-trusted-firmware-sunxi-mainline/master/build/sun50i_h616/debug/bl31/wa_cve_2017_5715_bpiall.o
 .text          0x0000000000000000        0x0 /home/lodge/Allwinner/Orangepi-H616/external/cache/sources/arm-trusted-firmware-sunxi-mainline/master/build/sun50i_h616/debug/bl31/wa_cve_2017_5715_mmu.o
 .data          0x0000000000000000        0x0 /home/lodge/Allwinner/Orangepi-H616/external/cache/sources/arm-trusted-firmware-sunxi-mainline/master/build/sun50i_h616/debug/bl31/wa_cve_2017_5715_mmu.o
 .bss           0x0000000000000000        0x0 /home/lodge/Allwinner/Orangepi-H616/external/cache/sources/arm-trusted-firmware-sunxi-mainline/master/build/sun50i_h616/debug/bl31/wa_cve_2017_5715_mmu.o
 .vectors       0x0000000000000000      0x800 /home/lodge/Allwinner/Orangepi-H616/external/cache/sources/arm-trusted-firmware-sunxi-mainline/master/build/sun50i_h616/debug/bl31/wa_cve_2017_5715_mmu.o
 .debug_line    0x0000000000000000       0x82 /home/lodge/Allwinner/Orangepi-H616/external/cache/sources/arm-trusted-firmware-sunxi-mainline/master/build/sun50i_h616/debug/bl31/wa_cve_2017_5715_mmu.o
 .debug_info    0x0000000000000000       0x2e /home/lodge/Allwinner/Orangepi-H616/external/cache/sources/arm-trusted-firmware-sunxi-mainline/master/build/sun50i_h616/debug/bl31/wa_cve_2017_5715_mmu.o
 .debug_abbrev  0x0000000000000000       0x14 /home/lodge/Allwinner/Orangepi-H616/external/cache/sources/arm-trusted-firmware-sunxi-mainline/master/build/sun50i_h616/debug/bl31/wa_cve_2017_5715_mmu.o
 .debug_aranges
                0x0000000000000000       0x30 /home/lodge/Allwinner/Orangepi-H616/external/cache/sources/arm-trusted-firmware-sunxi-mainline/master/build/sun50i_h616/debug/bl31/wa_cve_2017_5715_mmu.o
 .debug_str     0x0000000000000000       0x9c /home/lodge/Allwinner/Orangepi-H616/external/cache/sources/arm-trusted-firmware-sunxi-mainline/master/build/sun50i_h616/debug/bl31/wa_cve_2017_5715_mmu.o
 .debug_frame   0x0000000000000000      0x190 /home/lodge/Allwinner/Orangepi-H616/external/cache/sources/arm-trusted-firmware-sunxi-mainline/master/build/sun50i_h616/debug/bl31/wa_cve_2017_5715_mmu.o
 .text          0x0000000000000000        0x0 /home/lodge/Allwinner/Orangepi-H616/external/cache/sources/arm-trusted-firmware-sunxi-mainline/master/build/sun50i_h616/debug/bl31/context.o
 .data          0x0000000000000000        0x0 /home/lodge/Allwinner/Orangepi-H616/external/cache/sources/arm-trusted-firmware-sunxi-mainline/master/build/sun50i_h616/debug/bl31/context.o
 .bss           0x0000000000000000        0x0 /home/lodge/Allwinner/Orangepi-H616/external/cache/sources/arm-trusted-firmware-sunxi-mainline/master/build/sun50i_h616/debug/bl31/context.o
 .text.asm.el1_sysregs_context_save
                0x0000000000000000       0xa0 /home/lodge/Allwinner/Orangepi-H616/external/cache/sources/arm-trusted-firmware-sunxi-mainline/master/build/sun50i_h616/debug/bl31/context.o
 .text          0x0000000000000000        0x0 /home/lodge/Allwinner/Orangepi-H616/external/cache/sources/arm-trusted-firmware-sunxi-mainline/master/build/sun50i_h616/debug/bl31/cpu_data.o
 .data          0x0000000000000000        0x0 /home/lodge/Allwinner/Orangepi-H616/external/cache/sources/arm-trusted-firmware-sunxi-mainline/master/build/sun50i_h616/debug/bl31/cpu_data.o
 .bss           0x0000000000000000        0x0 /home/lodge/Allwinner/Orangepi-H616/external/cache/sources/arm-trusted-firmware-sunxi-mainline/master/build/sun50i_h616/debug/bl31/cpu_data.o
 .text          0x0000000000000000        0x0 /home/lodge/Allwinner/Orangepi-H616/external/cache/sources/arm-trusted-firmware-sunxi-mainline/master/build/sun50i_h616/debug/bl31/spinlock.o
 .data          0x0000000000000000        0x0 /home/lodge/Allwinner/Orangepi-H616/external/cache/sources/arm-trusted-firmware-sunxi-mainline/master/build/sun50i_h616/debug/bl31/spinlock.o
 .bss           0x0000000000000000        0x0 /home/lodge/Allwinner/Orangepi-H616/external/cache/sources/arm-trusted-firmware-sunxi-mainline/master/build/sun50i_h616/debug/bl31/spinlock.o
 .text          0x0000000000000000        0x0 /home/lodge/Allwinner/Orangepi-H616/external/cache/sources/arm-trusted-firmware-sunxi-mainline/master/build/sun50i_h616/debug/bl31/psci_helpers.o
 .data          0x0000000000000000        0x0 /home/lodge/Allwinner/Orangepi-H616/external/cache/sources/arm-trusted-firmware-sunxi-mainline/master/build/sun50i_h616/debug/bl31/psci_helpers.o
 .bss           0x0000000000000000        0x0 /home/lodge/Allwinner/Orangepi-H616/external/cache/sources/arm-trusted-firmware-sunxi-mainline/master/build/sun50i_h616/debug/bl31/psci_helpers.o
 .text.asm.psci_do_pwrup_cache_maintenance
                0x0000000000000000       0x34 /home/lodge/Allwinner/Orangepi-H616/external/cache/sources/arm-trusted-firmware-sunxi-mainline/master/build/sun50i_h616/debug/bl31/psci_helpers.o
 .text          0x0000000000000000        0x0 /home/lodge/Allwinner/Orangepi-H616/external/cache/sources/arm-trusted-firmware-sunxi-mainline/master/build/sun50i_h616/debug/bl31/platform_mp_stack.o
 .data          0x0000000000000000        0x0 /home/lodge/Allwinner/Orangepi-H616/external/cache/sources/arm-trusted-firmware-sunxi-mainline/master/build/sun50i_h616/debug/bl31/platform_mp_stack.o
 .bss           0x0000000000000000        0x0 /home/lodge/Allwinner/Orangepi-H616/external/cache/sources/arm-trusted-firmware-sunxi-mainline/master/build/sun50i_h616/debug/bl31/platform_mp_stack.o
 .text          0x0000000000000000        0x0 /home/lodge/Allwinner/Orangepi-H616/external/cache/sources/arm-trusted-firmware-sunxi-mainline/master/build/sun50i_h616/debug/bl31/debug.o
 .data          0x0000000000000000        0x0 /home/lodge/Allwinner/Orangepi-H616/external/cache/sources/arm-trusted-firmware-sunxi-mainline/master/build/sun50i_h616/debug/bl31/debug.o
 .bss           0x0000000000000000        0x0 /home/lodge/Allwinner/Orangepi-H616/external/cache/sources/arm-trusted-firmware-sunxi-mainline/master/build/sun50i_h616/debug/bl31/debug.o
 .text          0x0000000000000000        0x0 /home/lodge/Allwinner/Orangepi-H616/external/cache/sources/arm-trusted-firmware-sunxi-mainline/master/build/sun50i_h616/debug/bl31/cache_helpers.o
 .data          0x0000000000000000        0x0 /home/lodge/Allwinner/Orangepi-H616/external/cache/sources/arm-trusted-firmware-sunxi-mainline/master/build/sun50i_h616/debug/bl31/cache_helpers.o
 .bss           0x0000000000000000        0x0 /home/lodge/Allwinner/Orangepi-H616/external/cache/sources/arm-trusted-firmware-sunxi-mainline/master/build/sun50i_h616/debug/bl31/cache_helpers.o
 .text.asm.flush_dcache_to_popa_range
                0x0000000000000000       0x38 /home/lodge/Allwinner/Orangepi-H616/external/cache/sources/arm-trusted-firmware-sunxi-mainline/master/build/sun50i_h616/debug/bl31/cache_helpers.o
 .text.asm.dcsw_op_louis
                0x0000000000000000       0x14 /home/lodge/Allwinner/Orangepi-H616/external/cache/sources/arm-trusted-firmware-sunxi-mainline/master/build/sun50i_h616/debug/bl31/cache_helpers.o
 .text.asm.dcsw_op_all
                0x0000000000000000       0x14 /home/lodge/Allwinner/Orangepi-H616/external/cache/sources/arm-trusted-firmware-sunxi-mainline/master/build/sun50i_h616/debug/bl31/cache_helpers.o
 .text.asm.dcsw_op_level3
                0x0000000000000000       0x10 /home/lodge/Allwinner/Orangepi-H616/external/cache/sources/arm-trusted-firmware-sunxi-mainline/master/build/sun50i_h616/debug/bl31/cache_helpers.o
 .text          0x0000000000000000        0x0 /home/lodge/Allwinner/Orangepi-H616/external/cache/sources/arm-trusted-firmware-sunxi-mainline/master/build/sun50i_h616/debug/bl31/misc_helpers.o
 .data          0x0000000000000000        0x0 /home/lodge/Allwinner/Orangepi-H616/external/cache/sources/arm-trusted-firmware-sunxi-mainline/master/build/sun50i_h616/debug/bl31/misc_helpers.o
 .bss           0x0000000000000000        0x0 /home/lodge/Allwinner/Orangepi-H616/external/cache/sources/arm-trusted-firmware-sunxi-mainline/master/build/sun50i_h616/debug/bl31/misc_helpers.o
 .text.asm.smc  0x0000000000000000        0x4 /home/lodge/Allwinner/Orangepi-H616/external/cache/sources/arm-trusted-firmware-sunxi-mainline/master/build/sun50i_h616/debug/bl31/misc_helpers.o
 .text.asm.memcpy16
                0x0000000000000000       0x48 /home/lodge/Allwinner/Orangepi-H616/external/cache/sources/arm-trusted-firmware-sunxi-mainline/master/build/sun50i_h616/debug/bl31/misc_helpers.o
 .text.asm.disable_mmu_el3
                0x0000000000000000       0x1c /home/lodge/Allwinner/Orangepi-H616/external/cache/sources/arm-trusted-firmware-sunxi-mainline/master/build/sun50i_h616/debug/bl31/misc_helpers.o
 .text.asm.disable_mmu_icache_el3
                0x0000000000000000        0x8 /home/lodge/Allwinner/Orangepi-H616/external/cache/sources/arm-trusted-firmware-sunxi-mainline/master/build/sun50i_h616/debug/bl31/misc_helpers.o
 .text.asm.disable_mmu_el1
                0x0000000000000000       0x1c /home/lodge/Allwinner/Orangepi-H616/external/cache/sources/arm-trusted-firmware-sunxi-mainline/master/build/sun50i_h616/debug/bl31/misc_helpers.o
 .text.asm.disable_mmu_icache_el1
                0x0000000000000000        0x8 /home/lodge/Allwinner/Orangepi-H616/external/cache/sources/arm-trusted-firmware-sunxi-mainline/master/build/sun50i_h616/debug/bl31/misc_helpers.o
 .text.asm.fixup_gdt_reloc
                0x0000000000000000       0xc4 /home/lodge/Allwinner/Orangepi-H616/external/cache/sources/arm-trusted-firmware-sunxi-mainline/master/build/sun50i_h616/debug/bl31/misc_helpers.o
 .text.asm.gpt_tlbi_by_pa_ll
                0x0000000000000000       0x38 /home/lodge/Allwinner/Orangepi-H616/external/cache/sources/arm-trusted-firmware-sunxi-mainline/master/build/sun50i_h616/debug/bl31/misc_helpers.o
 .text          0x0000000000000000        0x0 /home/lodge/Allwinner/Orangepi-H616/external/cache/sources/arm-trusted-firmware-sunxi-mainline/master/build/sun50i_h616/debug/bl31/platform_helpers.o
 .data          0x0000000000000000        0x0 /home/lodge/Allwinner/Orangepi-H616/external/cache/sources/arm-trusted-firmware-sunxi-mainline/master/build/sun50i_h616/debug/bl31/platform_helpers.o
 .bss           0x0000000000000000        0x0 /home/lodge/Allwinner/Orangepi-H616/external/cache/sources/arm-trusted-firmware-sunxi-mainline/master/build/sun50i_h616/debug/bl31/platform_helpers.o
 .text.asm.plat_report_exception
                0x0000000000000000        0x4 /home/lodge/Allwinner/Orangepi-H616/external/cache/sources/arm-trusted-firmware-sunxi-mainline/master/build/sun50i_h616/debug/bl31/platform_helpers.o
 .text.asm.bl1_plat_prepare_exit
                0x0000000000000000        0x4 /home/lodge/Allwinner/Orangepi-H616/external/cache/sources/arm-trusted-firmware-sunxi-mainline/master/build/sun50i_h616/debug/bl31/platform_helpers.o
 .text.asm.bl32_plat_enable_mmu
                0x0000000000000000        0x4 /home/lodge/Allwinner/Orangepi-H616/external/cache/sources/arm-trusted-firmware-sunxi-mainline/master/build/sun50i_h616/debug/bl31/platform_helpers.o
 .text.asm.plat_handle_uncontainable_ea
                0x0000000000000000        0x4 /home/lodge/Allwinner/Orangepi-H616/external/cache/sources/arm-trusted-firmware-sunxi-mainline/master/build/sun50i_h616/debug/bl31/platform_helpers.o
 .text          0x0000000000000000        0x0 /home/lodge/Allwinner/Orangepi-H616/external/cache/sources/arm-trusted-firmware-sunxi-mainline/master/build/sun50i_h616/debug/bl31/16550_console.o
 .data          0x0000000000000000        0x0 /home/lodge/Allwinner/Orangepi-H616/external/cache/sources/arm-trusted-firmware-sunxi-mainline/master/build/sun50i_h616/debug/bl31/16550_console.o
 .bss           0x0000000000000000        0x0 /home/lodge/Allwinner/Orangepi-H616/external/cache/sources/arm-trusted-firmware-sunxi-mainline/master/build/sun50i_h616/debug/bl31/16550_console.o
 .text          0x0000000000000000        0x0 /home/lodge/Allwinner/Orangepi-H616/external/cache/sources/arm-trusted-firmware-sunxi-mainline/master/build/sun50i_h616/debug/bl31/enable_mmu.o
 .data          0x0000000000000000        0x0 /home/lodge/Allwinner/Orangepi-H616/external/cache/sources/arm-trusted-firmware-sunxi-mainline/master/build/sun50i_h616/debug/bl31/enable_mmu.o
 .bss           0x0000000000000000        0x0 /home/lodge/Allwinner/Orangepi-H616/external/cache/sources/arm-trusted-firmware-sunxi-mainline/master/build/sun50i_h616/debug/bl31/enable_mmu.o
 .text.asm.enable_mmu_direct_el1
                0x0000000000000000       0x70 /home/lodge/Allwinner/Orangepi-H616/external/cache/sources/arm-trusted-firmware-sunxi-mainline/master/build/sun50i_h616/debug/bl31/enable_mmu.o
 .text.asm.enable_mmu_direct_el2
                0x0000000000000000       0x70 /home/lodge/Allwinner/Orangepi-H616/external/cache/sources/arm-trusted-firmware-sunxi-mainline/master/build/sun50i_h616/debug/bl31/enable_mmu.o
 .text          0x0000000000000000        0x0 /home/lodge/Allwinner/Orangepi-H616/external/cache/sources/arm-trusted-firmware-sunxi-mainline/master/build/sun50i_h616/debug/bl31/plat_helpers.o
 .data          0x0000000000000000        0x0 /home/lodge/Allwinner/Orangepi-H616/external/cache/sources/arm-trusted-firmware-sunxi-mainline/master/build/sun50i_h616/debug/bl31/plat_helpers.o
 .bss           0x0000000000000000        0x0 /home/lodge/Allwinner/Orangepi-H616/external/cache/sources/arm-trusted-firmware-sunxi-mainline/master/build/sun50i_h616/debug/bl31/plat_helpers.o
 .text.asm.plat_report_exception
                0x0000000000000000        0x4 /home/lodge/Allwinner/Orangepi-H616/external/cache/sources/arm-trusted-firmware-sunxi-mainline/master/build/sun50i_h616/debug/bl31/plat_helpers.o
 .text          0x0000000000000000        0x0 /home/lodge/Allwinner/Orangepi-H616/external/cache/sources/arm-trusted-firmware-sunxi-mainline/master/build/sun50i_h616/debug/lib/libfdt.a(fdt.o)
 .data          0x0000000000000000        0x0 /home/lodge/Allwinner/Orangepi-H616/external/cache/sources/arm-trusted-firmware-sunxi-mainline/master/build/sun50i_h616/debug/lib/libfdt.a(fdt.o)
 .bss           0x0000000000000000        0x0 /home/lodge/Allwinner/Orangepi-H616/external/cache/sources/arm-trusted-firmware-sunxi-mainline/master/build/sun50i_h616/debug/lib/libfdt.a(fdt.o)
 .eh_frame      0x0000000000000000      0x1d8 /home/lodge/Allwinner/Orangepi-H616/external/cache/sources/arm-trusted-firmware-sunxi-mainline/master/build/sun50i_h616/debug/lib/libfdt.a(fdt.o)
 .text          0x0000000000000000        0x0 /home/lodge/Allwinner/Orangepi-H616/external/cache/sources/arm-trusted-firmware-sunxi-mainline/master/build/sun50i_h616/debug/lib/libfdt.a(fdt_addresses.o)
 .data          0x0000000000000000        0x0 /home/lodge/Allwinner/Orangepi-H616/external/cache/sources/arm-trusted-firmware-sunxi-mainline/master/build/sun50i_h616/debug/lib/libfdt.a(fdt_addresses.o)
 .bss           0x0000000000000000        0x0 /home/lodge/Allwinner/Orangepi-H616/external/cache/sources/arm-trusted-firmware-sunxi-mainline/master/build/sun50i_h616/debug/lib/libfdt.a(fdt_addresses.o)
 .text.fdt_appendprop_addrrange
                0x0000000000000000      0x12c /home/lodge/Allwinner/Orangepi-H616/external/cache/sources/arm-trusted-firmware-sunxi-mainline/master/build/sun50i_h616/debug/lib/libfdt.a(fdt_addresses.o)
 .eh_frame      0x0000000000000000       0xb0 /home/lodge/Allwinner/Orangepi-H616/external/cache/sources/arm-trusted-firmware-sunxi-mainline/master/build/sun50i_h616/debug/lib/libfdt.a(fdt_addresses.o)
 .text          0x0000000000000000        0x0 /home/lodge/Allwinner/Orangepi-H616/external/cache/sources/arm-trusted-firmware-sunxi-mainline/master/build/sun50i_h616/debug/lib/libfdt.a(fdt_ro.o)
 .data          0x0000000000000000        0x0 /home/lodge/Allwinner/Orangepi-H616/external/cache/sources/arm-trusted-firmware-sunxi-mainline/master/build/sun50i_h616/debug/lib/libfdt.a(fdt_ro.o)
 .bss           0x0000000000000000        0x0 /home/lodge/Allwinner/Orangepi-H616/external/cache/sources/arm-trusted-firmware-sunxi-mainline/master/build/sun50i_h616/debug/lib/libfdt.a(fdt_ro.o)
 .text.fdt_string
                0x0000000000000000        0x8 /home/lodge/Allwinner/Orangepi-H616/external/cache/sources/arm-trusted-firmware-sunxi-mainline/master/build/sun50i_h616/debug/lib/libfdt.a(fdt_ro.o)
 .text.fdt_get_mem_rsv
                0x0000000000000000       0x6c /home/lodge/Allwinner/Orangepi-H616/external/cache/sources/arm-trusted-firmware-sunxi-mainline/master/build/sun50i_h616/debug/lib/libfdt.a(fdt_ro.o)
 .text.fdt_get_property_by_offset
                0x0000000000000000       0x50 /home/lodge/Allwinner/Orangepi-H616/external/cache/sources/arm-trusted-firmware-sunxi-mainline/master/build/sun50i_h616/debug/lib/libfdt.a(fdt_ro.o)
 .text.fdt_getprop_by_offset
                0x0000000000000000       0xbc /home/lodge/Allwinner/Orangepi-H616/external/cache/sources/arm-trusted-firmware-sunxi-mainline/master/build/sun50i_h616/debug/lib/libfdt.a(fdt_ro.o)
 .rodata.fdt_get_phandle.str1.1
                0x0000000000000000       0x16 /home/lodge/Allwinner/Orangepi-H616/external/cache/sources/arm-trusted-firmware-sunxi-mainline/master/build/sun50i_h616/debug/lib/libfdt.a(fdt_ro.o)
 .text.fdt_get_phandle
                0x0000000000000000       0x74 /home/lodge/Allwinner/Orangepi-H616/external/cache/sources/arm-trusted-firmware-sunxi-mainline/master/build/sun50i_h616/debug/lib/libfdt.a(fdt_ro.o)
 .text.fdt_find_max_phandle
                0x0000000000000000       0x7c /home/lodge/Allwinner/Orangepi-H616/external/cache/sources/arm-trusted-firmware-sunxi-mainline/master/build/sun50i_h616/debug/lib/libfdt.a(fdt_ro.o)
 .text.fdt_generate_phandle
                0x0000000000000000       0x4c /home/lodge/Allwinner/Orangepi-H616/external/cache/sources/arm-trusted-firmware-sunxi-mainline/master/build/sun50i_h616/debug/lib/libfdt.a(fdt_ro.o)
 .text.fdt_get_alias
                0x0000000000000000       0x34 /home/lodge/Allwinner/Orangepi-H616/external/cache/sources/arm-trusted-firmware-sunxi-mainline/master/build/sun50i_h616/debug/lib/libfdt.a(fdt_ro.o)
 .text.fdt_get_path
                0x0000000000000000      0x180 /home/lodge/Allwinner/Orangepi-H616/external/cache/sources/arm-trusted-firmware-sunxi-mainline/master/build/sun50i_h616/debug/lib/libfdt.a(fdt_ro.o)
 .text.fdt_supernode_atdepth_offset
                0x0000000000000000       0xc0 /home/lodge/Allwinner/Orangepi-H616/external/cache/sources/arm-trusted-firmware-sunxi-mainline/master/build/sun50i_h616/debug/lib/libfdt.a(fdt_ro.o)
 .text.fdt_node_depth
                0x0000000000000000       0x30 /home/lodge/Allwinner/Orangepi-H616/external/cache/sources/arm-trusted-firmware-sunxi-mainline/master/build/sun50i_h616/debug/lib/libfdt.a(fdt_ro.o)
 .text.fdt_parent_offset
                0x0000000000000000       0x44 /home/lodge/Allwinner/Orangepi-H616/external/cache/sources/arm-trusted-firmware-sunxi-mainline/master/build/sun50i_h616/debug/lib/libfdt.a(fdt_ro.o)
 .text.fdt_node_offset_by_prop_value
                0x0000000000000000       0xb4 /home/lodge/Allwinner/Orangepi-H616/external/cache/sources/arm-trusted-firmware-sunxi-mainline/master/build/sun50i_h616/debug/lib/libfdt.a(fdt_ro.o)
 .text.fdt_node_offset_by_phandle
                0x0000000000000000       0x84 /home/lodge/Allwinner/Orangepi-H616/external/cache/sources/arm-trusted-firmware-sunxi-mainline/master/build/sun50i_h616/debug/lib/libfdt.a(fdt_ro.o)
 .text.fdt_stringlist_count
                0x0000000000000000       0x7c /home/lodge/Allwinner/Orangepi-H616/external/cache/sources/arm-trusted-firmware-sunxi-mainline/master/build/sun50i_h616/debug/lib/libfdt.a(fdt_ro.o)
 .text.fdt_stringlist_search
                0x0000000000000000       0xc4 /home/lodge/Allwinner/Orangepi-H616/external/cache/sources/arm-trusted-firmware-sunxi-mainline/master/build/sun50i_h616/debug/lib/libfdt.a(fdt_ro.o)
 .text.fdt_stringlist_get
                0x0000000000000000       0xb4 /home/lodge/Allwinner/Orangepi-H616/external/cache/sources/arm-trusted-firmware-sunxi-mainline/master/build/sun50i_h616/debug/lib/libfdt.a(fdt_ro.o)
 .eh_frame      0x0000000000000000      0x6d0 /home/lodge/Allwinner/Orangepi-H616/external/cache/sources/arm-trusted-firmware-sunxi-mainline/master/build/sun50i_h616/debug/lib/libfdt.a(fdt_ro.o)
 .text          0x0000000000000000        0x0 /home/lodge/Allwinner/Orangepi-H616/external/cache/sources/arm-trusted-firmware-sunxi-mainline/master/build/sun50i_h616/debug/lib/libfdt.a(fdt_rw.o)
 .data          0x0000000000000000        0x0 /home/lodge/Allwinner/Orangepi-H616/external/cache/sources/arm-trusted-firmware-sunxi-mainline/master/build/sun50i_h616/debug/lib/libfdt.a(fdt_rw.o)
 .bss           0x0000000000000000        0x0 /home/lodge/Allwinner/Orangepi-H616/external/cache/sources/arm-trusted-firmware-sunxi-mainline/master/build/sun50i_h616/debug/lib/libfdt.a(fdt_rw.o)
 .text.cpu_to_fdt64
                0x0000000000000000        0x8 /home/lodge/Allwinner/Orangepi-H616/external/cache/sources/arm-trusted-firmware-sunxi-mainline/master/build/sun50i_h616/debug/lib/libfdt.a(fdt_rw.o)
 .text.fdt_splice_mem_rsv_
                0x0000000000000000       0x74 /home/lodge/Allwinner/Orangepi-H616/external/cache/sources/arm-trusted-firmware-sunxi-mainline/master/build/sun50i_h616/debug/lib/libfdt.a(fdt_rw.o)
 .text.fdt_add_mem_rsv
                0x0000000000000000       0x98 /home/lodge/Allwinner/Orangepi-H616/external/cache/sources/arm-trusted-firmware-sunxi-mainline/master/build/sun50i_h616/debug/lib/libfdt.a(fdt_rw.o)
 .text.fdt_del_mem_rsv
                0x0000000000000000       0x7c /home/lodge/Allwinner/Orangepi-H616/external/cache/sources/arm-trusted-firmware-sunxi-mainline/master/build/sun50i_h616/debug/lib/libfdt.a(fdt_rw.o)
 .text.fdt_set_name
                0x0000000000000000       0xac /home/lodge/Allwinner/Orangepi-H616/external/cache/sources/arm-trusted-firmware-sunxi-mainline/master/build/sun50i_h616/debug/lib/libfdt.a(fdt_rw.o)
 .text.fdt_appendprop
                0x0000000000000000       0xf0 /home/lodge/Allwinner/Orangepi-H616/external/cache/sources/arm-trusted-firmware-sunxi-mainline/master/build/sun50i_h616/debug/lib/libfdt.a(fdt_rw.o)
 .text.fdt_delprop
                0x0000000000000000       0x6c /home/lodge/Allwinner/Orangepi-H616/external/cache/sources/arm-trusted-firmware-sunxi-mainline/master/build/sun50i_h616/debug/lib/libfdt.a(fdt_rw.o)
 .text.fdt_del_node
                0x0000000000000000       0x70 /home/lodge/Allwinner/Orangepi-H616/external/cache/sources/arm-trusted-firmware-sunxi-mainline/master/build/sun50i_h616/debug/lib/libfdt.a(fdt_rw.o)
 .eh_frame      0x0000000000000000      0x3b8 /home/lodge/Allwinner/Orangepi-H616/external/cache/sources/arm-trusted-firmware-sunxi-mainline/master/build/sun50i_h616/debug/lib/libfdt.a(fdt_rw.o)
 .text          0x0000000000000000        0x0 /home/lodge/Allwinner/Orangepi-H616/external/cache/sources/arm-trusted-firmware-sunxi-mainline/master/build/sun50i_h616/debug/lib/libfdt.a(fdt_wip.o)
 .data          0x0000000000000000        0x0 /home/lodge/Allwinner/Orangepi-H616/external/cache/sources/arm-trusted-firmware-sunxi-mainline/master/build/sun50i_h616/debug/lib/libfdt.a(fdt_wip.o)
 .bss           0x0000000000000000        0x0 /home/lodge/Allwinner/Orangepi-H616/external/cache/sources/arm-trusted-firmware-sunxi-mainline/master/build/sun50i_h616/debug/lib/libfdt.a(fdt_wip.o)
 .text.fdt_setprop_inplace_namelen_partial
                0x0000000000000000       0x68 /home/lodge/Allwinner/Orangepi-H616/external/cache/sources/arm-trusted-firmware-sunxi-mainline/master/build/sun50i_h616/debug/lib/libfdt.a(fdt_wip.o)
 .text.fdt_setprop_inplace
                0x0000000000000000       0x8c /home/lodge/Allwinner/Orangepi-H616/external/cache/sources/arm-trusted-firmware-sunxi-mainline/master/build/sun50i_h616/debug/lib/libfdt.a(fdt_wip.o)
 .text.fdt_nop_property
                0x0000000000000000       0x48 /home/lodge/Allwinner/Orangepi-H616/external/cache/sources/arm-trusted-firmware-sunxi-mainline/master/build/sun50i_h616/debug/lib/libfdt.a(fdt_wip.o)
 .text.fdt_node_end_offset_
                0x0000000000000000       0x48 /home/lodge/Allwinner/Orangepi-H616/external/cache/sources/arm-trusted-firmware-sunxi-mainline/master/build/sun50i_h616/debug/lib/libfdt.a(fdt_wip.o)
 .text.fdt_nop_node
                0x0000000000000000       0x68 /home/lodge/Allwinner/Orangepi-H616/external/cache/sources/arm-trusted-firmware-sunxi-mainline/master/build/sun50i_h616/debug/lib/libfdt.a(fdt_wip.o)
 .debug_info    0x0000000000000000      0x80b /home/lodge/Allwinner/Orangepi-H616/external/cache/sources/arm-trusted-firmware-sunxi-mainline/master/build/sun50i_h616/debug/lib/libfdt.a(fdt_wip.o)
 .debug_abbrev  0x0000000000000000      0x231 /home/lodge/Allwinner/Orangepi-H616/external/cache/sources/arm-trusted-firmware-sunxi-mainline/master/build/sun50i_h616/debug/lib/libfdt.a(fdt_wip.o)
 .debug_loc     0x0000000000000000      0xba0 /home/lodge/Allwinner/Orangepi-H616/external/cache/sources/arm-trusted-firmware-sunxi-mainline/master/build/sun50i_h616/debug/lib/libfdt.a(fdt_wip.o)
 .debug_aranges
                0x0000000000000000       0x70 /home/lodge/Allwinner/Orangepi-H616/external/cache/sources/arm-trusted-firmware-sunxi-mainline/master/build/sun50i_h616/debug/lib/libfdt.a(fdt_wip.o)
 .debug_ranges  0x0000000000000000      0x190 /home/lodge/Allwinner/Orangepi-H616/external/cache/sources/arm-trusted-firmware-sunxi-mainline/master/build/sun50i_h616/debug/lib/libfdt.a(fdt_wip.o)
 .debug_line    0x0000000000000000      0x2cc /home/lodge/Allwinner/Orangepi-H616/external/cache/sources/arm-trusted-firmware-sunxi-mainline/master/build/sun50i_h616/debug/lib/libfdt.a(fdt_wip.o)
 .debug_str     0x0000000000000000      0x3c1 /home/lodge/Allwinner/Orangepi-H616/external/cache/sources/arm-trusted-firmware-sunxi-mainline/master/build/sun50i_h616/debug/lib/libfdt.a(fdt_wip.o)
 .comment       0x0000000000000000       0x5b /home/lodge/Allwinner/Orangepi-H616/external/cache/sources/arm-trusted-firmware-sunxi-mainline/master/build/sun50i_h616/debug/lib/libfdt.a(fdt_wip.o)
 .note.GNU-stack
                0x0000000000000000        0x0 /home/lodge/Allwinner/Orangepi-H616/external/cache/sources/arm-trusted-firmware-sunxi-mainline/master/build/sun50i_h616/debug/lib/libfdt.a(fdt_wip.o)
 .eh_frame      0x0000000000000000       0xe8 /home/lodge/Allwinner/Orangepi-H616/external/cache/sources/arm-trusted-firmware-sunxi-mainline/master/build/sun50i_h616/debug/lib/libfdt.a(fdt_wip.o)
 .text          0x0000000000000000        0x0 /home/lodge/Allwinner/Orangepi-H616/external/cache/sources/arm-trusted-firmware-sunxi-mainline/master/build/sun50i_h616/debug/lib/libc.a(assert.o)
 .data          0x0000000000000000        0x0 /home/lodge/Allwinner/Orangepi-H616/external/cache/sources/arm-trusted-firmware-sunxi-mainline/master/build/sun50i_h616/debug/lib/libc.a(assert.o)
 .bss           0x0000000000000000        0x0 /home/lodge/Allwinner/Orangepi-H616/external/cache/sources/arm-trusted-firmware-sunxi-mainline/master/build/sun50i_h616/debug/lib/libc.a(assert.o)
 .eh_frame      0x0000000000000000       0x30 /home/lodge/Allwinner/Orangepi-H616/external/cache/sources/arm-trusted-firmware-sunxi-mainline/master/build/sun50i_h616/debug/lib/libc.a(assert.o)
 .text          0x0000000000000000        0x0 /home/lodge/Allwinner/Orangepi-H616/external/cache/sources/arm-trusted-firmware-sunxi-mainline/master/build/sun50i_h616/debug/lib/libc.a(memchr.o)
 .data          0x0000000000000000        0x0 /home/lodge/Allwinner/Orangepi-H616/external/cache/sources/arm-trusted-firmware-sunxi-mainline/master/build/sun50i_h616/debug/lib/libc.a(memchr.o)
 .bss           0x0000000000000000        0x0 /home/lodge/Allwinner/Orangepi-H616/external/cache/sources/arm-trusted-firmware-sunxi-mainline/master/build/sun50i_h616/debug/lib/libc.a(memchr.o)
 .eh_frame      0x0000000000000000       0x28 /home/lodge/Allwinner/Orangepi-H616/external/cache/sources/arm-trusted-firmware-sunxi-mainline/master/build/sun50i_h616/debug/lib/libc.a(memchr.o)
 .text          0x0000000000000000        0x0 /home/lodge/Allwinner/Orangepi-H616/external/cache/sources/arm-trusted-firmware-sunxi-mainline/master/build/sun50i_h616/debug/lib/libc.a(memcmp.o)
 .data          0x0000000000000000        0x0 /home/lodge/Allwinner/Orangepi-H616/external/cache/sources/arm-trusted-firmware-sunxi-mainline/master/build/sun50i_h616/debug/lib/libc.a(memcmp.o)
 .bss           0x0000000000000000        0x0 /home/lodge/Allwinner/Orangepi-H616/external/cache/sources/arm-trusted-firmware-sunxi-mainline/master/build/sun50i_h616/debug/lib/libc.a(memcmp.o)
 .eh_frame      0x0000000000000000       0x28 /home/lodge/Allwinner/Orangepi-H616/external/cache/sources/arm-trusted-firmware-sunxi-mainline/master/build/sun50i_h616/debug/lib/libc.a(memcmp.o)
 .text          0x0000000000000000        0x0 /home/lodge/Allwinner/Orangepi-H616/external/cache/sources/arm-trusted-firmware-sunxi-mainline/master/build/sun50i_h616/debug/lib/libc.a(memcpy.o)
 .data          0x0000000000000000        0x0 /home/lodge/Allwinner/Orangepi-H616/external/cache/sources/arm-trusted-firmware-sunxi-mainline/master/build/sun50i_h616/debug/lib/libc.a(memcpy.o)
 .bss           0x0000000000000000        0x0 /home/lodge/Allwinner/Orangepi-H616/external/cache/sources/arm-trusted-firmware-sunxi-mainline/master/build/sun50i_h616/debug/lib/libc.a(memcpy.o)
 .eh_frame      0x0000000000000000       0x28 /home/lodge/Allwinner/Orangepi-H616/external/cache/sources/arm-trusted-firmware-sunxi-mainline/master/build/sun50i_h616/debug/lib/libc.a(memcpy.o)
 .text          0x0000000000000000        0x0 /home/lodge/Allwinner/Orangepi-H616/external/cache/sources/arm-trusted-firmware-sunxi-mainline/master/build/sun50i_h616/debug/lib/libc.a(memmove.o)
 .data          0x0000000000000000        0x0 /home/lodge/Allwinner/Orangepi-H616/external/cache/sources/arm-trusted-firmware-sunxi-mainline/master/build/sun50i_h616/debug/lib/libc.a(memmove.o)
 .bss           0x0000000000000000        0x0 /home/lodge/Allwinner/Orangepi-H616/external/cache/sources/arm-trusted-firmware-sunxi-mainline/master/build/sun50i_h616/debug/lib/libc.a(memmove.o)
 .eh_frame      0x0000000000000000       0x28 /home/lodge/Allwinner/Orangepi-H616/external/cache/sources/arm-trusted-firmware-sunxi-mainline/master/build/sun50i_h616/debug/lib/libc.a(memmove.o)
 .text          0x0000000000000000        0x0 /home/lodge/Allwinner/Orangepi-H616/external/cache/sources/arm-trusted-firmware-sunxi-mainline/master/build/sun50i_h616/debug/lib/libc.a(memset.o)
 .data          0x0000000000000000        0x0 /home/lodge/Allwinner/Orangepi-H616/external/cache/sources/arm-trusted-firmware-sunxi-mainline/master/build/sun50i_h616/debug/lib/libc.a(memset.o)
 .bss           0x0000000000000000        0x0 /home/lodge/Allwinner/Orangepi-H616/external/cache/sources/arm-trusted-firmware-sunxi-mainline/master/build/sun50i_h616/debug/lib/libc.a(memset.o)
 .eh_frame      0x0000000000000000       0x28 /home/lodge/Allwinner/Orangepi-H616/external/cache/sources/arm-trusted-firmware-sunxi-mainline/master/build/sun50i_h616/debug/lib/libc.a(memset.o)
 .text          0x0000000000000000        0x0 /home/lodge/Allwinner/Orangepi-H616/external/cache/sources/arm-trusted-firmware-sunxi-mainline/master/build/sun50i_h616/debug/lib/libc.a(printf.o)
 .data          0x0000000000000000        0x0 /home/lodge/Allwinner/Orangepi-H616/external/cache/sources/arm-trusted-firmware-sunxi-mainline/master/build/sun50i_h616/debug/lib/libc.a(printf.o)
 .bss           0x0000000000000000        0x0 /home/lodge/Allwinner/Orangepi-H616/external/cache/sources/arm-trusted-firmware-sunxi-mainline/master/build/sun50i_h616/debug/lib/libc.a(printf.o)
 .eh_frame      0x0000000000000000       0xb0 /home/lodge/Allwinner/Orangepi-H616/external/cache/sources/arm-trusted-firmware-sunxi-mainline/master/build/sun50i_h616/debug/lib/libc.a(printf.o)
 .text          0x0000000000000000        0x0 /home/lodge/Allwinner/Orangepi-H616/external/cache/sources/arm-trusted-firmware-sunxi-mainline/master/build/sun50i_h616/debug/lib/libc.a(putchar.o)
 .data          0x0000000000000000        0x0 /home/lodge/Allwinner/Orangepi-H616/external/cache/sources/arm-trusted-firmware-sunxi-mainline/master/build/sun50i_h616/debug/lib/libc.a(putchar.o)
 .bss           0x0000000000000000        0x0 /home/lodge/Allwinner/Orangepi-H616/external/cache/sources/arm-trusted-firmware-sunxi-mainline/master/build/sun50i_h616/debug/lib/libc.a(putchar.o)
 .eh_frame      0x0000000000000000       0x38 /home/lodge/Allwinner/Orangepi-H616/external/cache/sources/arm-trusted-firmware-sunxi-mainline/master/build/sun50i_h616/debug/lib/libc.a(putchar.o)
 .text          0x0000000000000000        0x0 /home/lodge/Allwinner/Orangepi-H616/external/cache/sources/arm-trusted-firmware-sunxi-mainline/master/build/sun50i_h616/debug/lib/libc.a(snprintf.o)
 .data          0x0000000000000000        0x0 /home/lodge/Allwinner/Orangepi-H616/external/cache/sources/arm-trusted-firmware-sunxi-mainline/master/build/sun50i_h616/debug/lib/libc.a(snprintf.o)
 .bss           0x0000000000000000        0x0 /home/lodge/Allwinner/Orangepi-H616/external/cache/sources/arm-trusted-firmware-sunxi-mainline/master/build/sun50i_h616/debug/lib/libc.a(snprintf.o)
 .text.unsigned_num_print
                0x0000000000000000      0x130 /home/lodge/Allwinner/Orangepi-H616/external/cache/sources/arm-trusted-firmware-sunxi-mainline/master/build/sun50i_h616/debug/lib/libc.a(snprintf.o)
 .rodata.vsnprintf.str1.1
                0x0000000000000000       0x3c /home/lodge/Allwinner/Orangepi-H616/external/cache/sources/arm-trusted-firmware-sunxi-mainline/master/build/sun50i_h616/debug/lib/libc.a(snprintf.o)
 .text.vsnprintf
                0x0000000000000000      0x3e4 /home/lodge/Allwinner/Orangepi-H616/external/cache/sources/arm-trusted-firmware-sunxi-mainline/master/build/sun50i_h616/debug/lib/libc.a(snprintf.o)
 .rodata.vsnprintf
                0x0000000000000000       0x12 /home/lodge/Allwinner/Orangepi-H616/external/cache/sources/arm-trusted-firmware-sunxi-mainline/master/build/sun50i_h616/debug/lib/libc.a(snprintf.o)
 .text.snprintf
                0x0000000000000000       0x50 /home/lodge/Allwinner/Orangepi-H616/external/cache/sources/arm-trusted-firmware-sunxi-mainline/master/build/sun50i_h616/debug/lib/libc.a(snprintf.o)
 .debug_info    0x0000000000000000      0x5d1 /home/lodge/Allwinner/Orangepi-H616/external/cache/sources/arm-trusted-firmware-sunxi-mainline/master/build/sun50i_h616/debug/lib/libc.a(snprintf.o)
 .debug_abbrev  0x0000000000000000      0x234 /home/lodge/Allwinner/Orangepi-H616/external/cache/sources/arm-trusted-firmware-sunxi-mainline/master/build/sun50i_h616/debug/lib/libc.a(snprintf.o)
 .debug_loc     0x0000000000000000      0xf82 /home/lodge/Allwinner/Orangepi-H616/external/cache/sources/arm-trusted-firmware-sunxi-mainline/master/build/sun50i_h616/debug/lib/libc.a(snprintf.o)
 .debug_aranges
                0x0000000000000000       0x50 /home/lodge/Allwinner/Orangepi-H616/external/cache/sources/arm-trusted-firmware-sunxi-mainline/master/build/sun50i_h616/debug/lib/libc.a(snprintf.o)
 .debug_ranges  0x0000000000000000       0x40 /home/lodge/Allwinner/Orangepi-H616/external/cache/sources/arm-trusted-firmware-sunxi-mainline/master/build/sun50i_h616/debug/lib/libc.a(snprintf.o)
 .debug_line    0x0000000000000000      0x500 /home/lodge/Allwinner/Orangepi-H616/external/cache/sources/arm-trusted-firmware-sunxi-mainline/master/build/sun50i_h616/debug/lib/libc.a(snprintf.o)
 .debug_str     0x0000000000000000      0x403 /home/lodge/Allwinner/Orangepi-H616/external/cache/sources/arm-trusted-firmware-sunxi-mainline/master/build/sun50i_h616/debug/lib/libc.a(snprintf.o)
 .comment       0x0000000000000000       0x5b /home/lodge/Allwinner/Orangepi-H616/external/cache/sources/arm-trusted-firmware-sunxi-mainline/master/build/sun50i_h616/debug/lib/libc.a(snprintf.o)
 .note.GNU-stack
                0x0000000000000000        0x0 /home/lodge/Allwinner/Orangepi-H616/external/cache/sources/arm-trusted-firmware-sunxi-mainline/master/build/sun50i_h616/debug/lib/libc.a(snprintf.o)
 .eh_frame      0x0000000000000000       0x78 /home/lodge/Allwinner/Orangepi-H616/external/cache/sources/arm-trusted-firmware-sunxi-mainline/master/build/sun50i_h616/debug/lib/libc.a(snprintf.o)
 .text          0x0000000000000000        0x0 /home/lodge/Allwinner/Orangepi-H616/external/cache/sources/arm-trusted-firmware-sunxi-mainline/master/build/sun50i_h616/debug/lib/libc.a(strcmp.o)
 .data          0x0000000000000000        0x0 /home/lodge/Allwinner/Orangepi-H616/external/cache/sources/arm-trusted-firmware-sunxi-mainline/master/build/sun50i_h616/debug/lib/libc.a(strcmp.o)
 .bss           0x0000000000000000        0x0 /home/lodge/Allwinner/Orangepi-H616/external/cache/sources/arm-trusted-firmware-sunxi-mainline/master/build/sun50i_h616/debug/lib/libc.a(strcmp.o)
 .eh_frame      0x0000000000000000       0x28 /home/lodge/Allwinner/Orangepi-H616/external/cache/sources/arm-trusted-firmware-sunxi-mainline/master/build/sun50i_h616/debug/lib/libc.a(strcmp.o)
 .text          0x0000000000000000        0x0 /home/lodge/Allwinner/Orangepi-H616/external/cache/sources/arm-trusted-firmware-sunxi-mainline/master/build/sun50i_h616/debug/lib/libc.a(strlen.o)
 .data          0x0000000000000000        0x0 /home/lodge/Allwinner/Orangepi-H616/external/cache/sources/arm-trusted-firmware-sunxi-mainline/master/build/sun50i_h616/debug/lib/libc.a(strlen.o)
 .bss           0x0000000000000000        0x0 /home/lodge/Allwinner/Orangepi-H616/external/cache/sources/arm-trusted-firmware-sunxi-mainline/master/build/sun50i_h616/debug/lib/libc.a(strlen.o)
 .eh_frame      0x0000000000000000       0x28 /home/lodge/Allwinner/Orangepi-H616/external/cache/sources/arm-trusted-firmware-sunxi-mainline/master/build/sun50i_h616/debug/lib/libc.a(strlen.o)
 .text          0x0000000000000000        0x0 /home/lodge/Allwinner/Orangepi-H616/external/cache/sources/arm-trusted-firmware-sunxi-mainline/master/build/sun50i_h616/debug/lib/libc.a(strncmp.o)
 .data          0x0000000000000000        0x0 /home/lodge/Allwinner/Orangepi-H616/external/cache/sources/arm-trusted-firmware-sunxi-mainline/master/build/sun50i_h616/debug/lib/libc.a(strncmp.o)
 .bss           0x0000000000000000        0x0 /home/lodge/Allwinner/Orangepi-H616/external/cache/sources/arm-trusted-firmware-sunxi-mainline/master/build/sun50i_h616/debug/lib/libc.a(strncmp.o)
 .eh_frame      0x0000000000000000       0x28 /home/lodge/Allwinner/Orangepi-H616/external/cache/sources/arm-trusted-firmware-sunxi-mainline/master/build/sun50i_h616/debug/lib/libc.a(strncmp.o)
 .text          0x0000000000000000        0x0 /home/lodge/Allwinner/Orangepi-H616/external/cache/sources/arm-trusted-firmware-sunxi-mainline/master/build/sun50i_h616/debug/lib/libc.a(strnlen.o)
 .data          0x0000000000000000        0x0 /home/lodge/Allwinner/Orangepi-H616/external/cache/sources/arm-trusted-firmware-sunxi-mainline/master/build/sun50i_h616/debug/lib/libc.a(strnlen.o)
 .bss           0x0000000000000000        0x0 /home/lodge/Allwinner/Orangepi-H616/external/cache/sources/arm-trusted-firmware-sunxi-mainline/master/build/sun50i_h616/debug/lib/libc.a(strnlen.o)
 .text.strnlen  0x0000000000000000       0x24 /home/lodge/Allwinner/Orangepi-H616/external/cache/sources/arm-trusted-firmware-sunxi-mainline/master/build/sun50i_h616/debug/lib/libc.a(strnlen.o)
 .debug_info    0x0000000000000000       0xad /home/lodge/Allwinner/Orangepi-H616/external/cache/sources/arm-trusted-firmware-sunxi-mainline/master/build/sun50i_h616/debug/lib/libc.a(strnlen.o)
 .debug_abbrev  0x0000000000000000       0x95 /home/lodge/Allwinner/Orangepi-H616/external/cache/sources/arm-trusted-firmware-sunxi-mainline/master/build/sun50i_h616/debug/lib/libc.a(strnlen.o)
 .debug_loc     0x0000000000000000       0x7a /home/lodge/Allwinner/Orangepi-H616/external/cache/sources/arm-trusted-firmware-sunxi-mainline/master/build/sun50i_h616/debug/lib/libc.a(strnlen.o)
 .debug_aranges
                0x0000000000000000       0x30 /home/lodge/Allwinner/Orangepi-H616/external/cache/sources/arm-trusted-firmware-sunxi-mainline/master/build/sun50i_h616/debug/lib/libc.a(strnlen.o)
 .debug_ranges  0x0000000000000000       0x20 /home/lodge/Allwinner/Orangepi-H616/external/cache/sources/arm-trusted-firmware-sunxi-mainline/master/build/sun50i_h616/debug/lib/libc.a(strnlen.o)
 .debug_line    0x0000000000000000       0xa9 /home/lodge/Allwinner/Orangepi-H616/external/cache/sources/arm-trusted-firmware-sunxi-mainline/master/build/sun50i_h616/debug/lib/libc.a(strnlen.o)
 .debug_str     0x0000000000000000      0x19e /home/lodge/Allwinner/Orangepi-H616/external/cache/sources/arm-trusted-firmware-sunxi-mainline/master/build/sun50i_h616/debug/lib/libc.a(strnlen.o)
 .comment       0x0000000000000000       0x5b /home/lodge/Allwinner/Orangepi-H616/external/cache/sources/arm-trusted-firmware-sunxi-mainline/master/build/sun50i_h616/debug/lib/libc.a(strnlen.o)
 .note.GNU-stack
                0x0000000000000000        0x0 /home/lodge/Allwinner/Orangepi-H616/external/cache/sources/arm-trusted-firmware-sunxi-mainline/master/build/sun50i_h616/debug/lib/libc.a(strnlen.o)
 .eh_frame      0x0000000000000000       0x28 /home/lodge/Allwinner/Orangepi-H616/external/cache/sources/arm-trusted-firmware-sunxi-mainline/master/build/sun50i_h616/debug/lib/libc.a(strnlen.o)
 .text          0x0000000000000000        0x0 /home/lodge/Allwinner/Orangepi-H616/external/cache/sources/arm-trusted-firmware-sunxi-mainline/master/build/sun50i_h616/debug/lib/libc.a(strrchr.o)
 .data          0x0000000000000000        0x0 /home/lodge/Allwinner/Orangepi-H616/external/cache/sources/arm-trusted-firmware-sunxi-mainline/master/build/sun50i_h616/debug/lib/libc.a(strrchr.o)
 .bss           0x0000000000000000        0x0 /home/lodge/Allwinner/Orangepi-H616/external/cache/sources/arm-trusted-firmware-sunxi-mainline/master/build/sun50i_h616/debug/lib/libc.a(strrchr.o)
 .eh_frame      0x0000000000000000       0x28 /home/lodge/Allwinner/Orangepi-H616/external/cache/sources/arm-trusted-firmware-sunxi-mainline/master/build/sun50i_h616/debug/lib/libc.a(strrchr.o)

Memory Configuration

Name             Origin             Length             Attributes
RAM              0x0000000040000000 0x0000000000040000 xrw
*default*        0x0000000000000000 0xffffffffffffffff

Linker script and memory map

                0x0000000040000000                . = 0x40000000
                0x0000000000000001                ASSERT ((. == ALIGN (0x1000)), BL31_BASE address is not aligned on a page boundary.)
                0x0000000040000000                __BL31_START__ = .

.text           0x0000000040000000     0xa000
                0x0000000040000000                __TEXT_START__ = .
 *bl31_entrypoint.o(.text*)
 .text.asm.bl31_entrypoint
                0x0000000040000000      0x144 /home/lodge/Allwinner/Orangepi-H616/external/cache/sources/arm-trusted-firmware-sunxi-mainline/master/build/sun50i_h616/debug/bl31/bl31_entrypoint.o
                0x0000000040000000                bl31_entrypoint
 .text.asm.bl31_warm_entrypoint
                0x0000000040000144       0x9c /home/lodge/Allwinner/Orangepi-H616/external/cache/sources/arm-trusted-firmware-sunxi-mainline/master/build/sun50i_h616/debug/bl31/bl31_entrypoint.o
                0x0000000040000144                bl31_warm_entrypoint
 *(SORT_BY_ALIGNMENT(SORT_BY_NAME(.text*)))
 .text.__assert
                0x00000000400001e0       0x24 /home/lodge/Allwinner/Orangepi-H616/external/cache/sources/arm-trusted-firmware-sunxi-mainline/master/build/sun50i_h616/debug/lib/libc.a(assert.o)
                0x00000000400001e0                __assert
 .text.arm_arch_svc_smc_handler
                0x0000000040000204      0x14c /home/lodge/Allwinner/Orangepi-H616/external/cache/sources/arm-trusted-firmware-sunxi-mainline/master/build/sun50i_h616/debug/bl31/arm_arch_svc_setup.o
 .text.asm._cpu_data_by_index
                0x0000000040000350       0x18 /home/lodge/Allwinner/Orangepi-H616/external/cache/sources/arm-trusted-firmware-sunxi-mainline/master/build/sun50i_h616/debug/bl31/cpu_data.o
                0x0000000040000350                _cpu_data_by_index
 .text.asm.a53_disable_non_temporal_hint
                0x0000000040000368       0x1c /home/lodge/Allwinner/Orangepi-H616/external/cache/sources/arm-trusted-firmware-sunxi-mainline/master/build/sun50i_h616/debug/bl31/cortex_a53.o
 .text.asm.asm_assert
                0x0000000040000384       0x60 /home/lodge/Allwinner/Orangepi-H616/external/cache/sources/arm-trusted-firmware-sunxi-mainline/master/build/sun50i_h616/debug/bl31/debug.o
                0x0000000040000384                asm_assert
 .text.asm.asm_print_hex
                0x00000000400003e4       0x30 /home/lodge/Allwinner/Orangepi-H616/external/cache/sources/arm-trusted-firmware-sunxi-mainline/master/build/sun50i_h616/debug/bl31/debug.o
                0x00000000400003e4                asm_print_hex
                0x00000000400003e8                asm_print_hex_bits
 .text.asm.asm_print_newline
                0x0000000040000414        0x8 /home/lodge/Allwinner/Orangepi-H616/external/cache/sources/arm-trusted-firmware-sunxi-mainline/master/build/sun50i_h616/debug/bl31/debug.o
                0x0000000040000414                asm_print_newline
 .text.asm.asm_print_str
                0x000000004000041c       0x18 /home/lodge/Allwinner/Orangepi-H616/external/cache/sources/arm-trusted-firmware-sunxi-mainline/master/build/sun50i_h616/debug/bl31/debug.o
                0x000000004000041c                asm_print_str
 .text.asm.bl31_plat_enable_mmu
                0x0000000040000434        0x4 /home/lodge/Allwinner/Orangepi-H616/external/cache/sources/arm-trusted-firmware-sunxi-mainline/master/build/sun50i_h616/debug/bl31/platform_helpers.o
                0x0000000040000434                bl31_plat_enable_mmu
 .text.asm.check_errata_1530924
                0x0000000040000438        0x8 /home/lodge/Allwinner/Orangepi-H616/external/cache/sources/arm-trusted-firmware-sunxi-mainline/master/build/sun50i_h616/debug/bl31/cortex_a53.o
 .text.asm.check_errata_819472
                0x0000000040000440        0x8 /home/lodge/Allwinner/Orangepi-H616/external/cache/sources/arm-trusted-firmware-sunxi-mainline/master/build/sun50i_h616/debug/bl31/cortex_a53.o
 .text.asm.check_errata_824069
                0x0000000040000448        0x8 /home/lodge/Allwinner/Orangepi-H616/external/cache/sources/arm-trusted-firmware-sunxi-mainline/master/build/sun50i_h616/debug/bl31/cortex_a53.o
 .text.asm.check_errata_826319
                0x0000000040000450        0x8 /home/lodge/Allwinner/Orangepi-H616/external/cache/sources/arm-trusted-firmware-sunxi-mainline/master/build/sun50i_h616/debug/bl31/cortex_a53.o
 .text.asm.check_errata_827319
                0x0000000040000458        0x8 /home/lodge/Allwinner/Orangepi-H616/external/cache/sources/arm-trusted-firmware-sunxi-mainline/master/build/sun50i_h616/debug/bl31/cortex_a53.o
 .text.asm.check_errata_835769
                0x0000000040000460       0x24 /home/lodge/Allwinner/Orangepi-H616/external/cache/sources/arm-trusted-firmware-sunxi-mainline/master/build/sun50i_h616/debug/bl31/cortex_a53.o
 .text.asm.check_errata_843419
                0x0000000040000484       0x24 /home/lodge/Allwinner/Orangepi-H616/external/cache/sources/arm-trusted-firmware-sunxi-mainline/master/build/sun50i_h616/debug/bl31/cortex_a53.o
 .text.asm.check_errata_855873
                0x00000000400004a8        0x8 /home/lodge/Allwinner/Orangepi-H616/external/cache/sources/arm-trusted-firmware-sunxi-mainline/master/build/sun50i_h616/debug/bl31/cortex_a53.o
 .text.asm.check_errata_disable_non_temporal_hint
                0x00000000400004b0        0x8 /home/lodge/Allwinner/Orangepi-H616/external/cache/sources/arm-trusted-firmware-sunxi-mainline/master/build/sun50i_h616/debug/bl31/cortex_a53.o
 .text.asm.check_smccc_arch_wa3_applies
                0x00000000400004b8       0x48 /home/lodge/Allwinner/Orangepi-H616/external/cache/sources/arm-trusted-firmware-sunxi-mainline/master/build/sun50i_h616/debug/bl31/cpu_helpers.o
                0x00000000400004b8                check_smccc_arch_wa3_applies
 .text.asm.check_wa_cve_2017_5715
                0x0000000040000500       0x48 /home/lodge/Allwinner/Orangepi-H616/external/cache/sources/arm-trusted-firmware-sunxi-mainline/master/build/sun50i_h616/debug/bl31/cpu_helpers.o
                0x0000000040000500                check_wa_cve_2017_5715
 .text.asm.clean_dcache_range
                0x0000000040000548       0x38 /home/lodge/Allwinner/Orangepi-H616/external/cache/sources/arm-trusted-firmware-sunxi-mainline/master/build/sun50i_h616/debug/bl31/cache_helpers.o
                0x0000000040000548                clean_dcache_range
 .text.asm.console_16550_core_flush
                0x0000000040000580       0x28 /home/lodge/Allwinner/Orangepi-H616/external/cache/sources/arm-trusted-firmware-sunxi-mainline/master/build/sun50i_h616/debug/bl31/16550_console.o
                0x0000000040000580                console_16550_core_flush
 .text.asm.console_16550_core_getc
                0x00000000400005a8       0x2c /home/lodge/Allwinner/Orangepi-H616/external/cache/sources/arm-trusted-firmware-sunxi-mainline/master/build/sun50i_h616/debug/bl31/16550_console.o
                0x00000000400005a8                console_16550_core_getc
 .text.asm.console_16550_core_init
                0x00000000400005d4       0x70 /home/lodge/Allwinner/Orangepi-H616/external/cache/sources/arm-trusted-firmware-sunxi-mainline/master/build/sun50i_h616/debug/bl31/16550_console.o
                0x00000000400005d4                console_16550_core_init
 .text.asm.console_16550_core_putc
                0x0000000040000644       0x4c /home/lodge/Allwinner/Orangepi-H616/external/cache/sources/arm-trusted-firmware-sunxi-mainline/master/build/sun50i_h616/debug/bl31/16550_console.o
                0x0000000040000644                console_16550_core_putc
 .text.asm.console_16550_flush
                0x0000000040000690       0x1c /home/lodge/Allwinner/Orangepi-H616/external/cache/sources/arm-trusted-firmware-sunxi-mainline/master/build/sun50i_h616/debug/bl31/16550_console.o
                0x0000000040000690                console_16550_flush
 .text.asm.console_16550_getc
                0x00000000400006ac       0x1c /home/lodge/Allwinner/Orangepi-H616/external/cache/sources/arm-trusted-firmware-sunxi-mainline/master/build/sun50i_h616/debug/bl31/16550_console.o
                0x00000000400006ac                console_16550_getc
 .text.asm.console_16550_putc
                0x00000000400006c8       0x1c /home/lodge/Allwinner/Orangepi-H616/external/cache/sources/arm-trusted-firmware-sunxi-mainline/master/build/sun50i_h616/debug/bl31/16550_console.o
                0x00000000400006c8                console_16550_putc
 .text.asm.console_16550_register
                0x00000000400006e4       0x58 /home/lodge/Allwinner/Orangepi-H616/external/cache/sources/arm-trusted-firmware-sunxi-mainline/master/build/sun50i_h616/debug/bl31/16550_console.o
                0x00000000400006e4                console_16550_register
 .text.asm.cortex_a53_cluster_pwr_dwn
                0x000000004000073c       0x24 /home/lodge/Allwinner/Orangepi-H616/external/cache/sources/arm-trusted-firmware-sunxi-mainline/master/build/sun50i_h616/debug/bl31/cortex_a53.o
 .text.asm.cortex_a53_core_pwr_dwn
                0x0000000040000760       0x18 /home/lodge/Allwinner/Orangepi-H616/external/cache/sources/arm-trusted-firmware-sunxi-mainline/master/build/sun50i_h616/debug/bl31/cortex_a53.o
 .text.asm.cortex_a53_cpu_reg_dump
                0x0000000040000778       0x18 /home/lodge/Allwinner/Orangepi-H616/external/cache/sources/arm-trusted-firmware-sunxi-mainline/master/build/sun50i_h616/debug/bl31/cortex_a53.o
 .text.asm.cortex_a53_disable_dcache
                0x0000000040000790       0x14 /home/lodge/Allwinner/Orangepi-H616/external/cache/sources/arm-trusted-firmware-sunxi-mainline/master/build/sun50i_h616/debug/bl31/cortex_a53.o
 .text.asm.cortex_a53_disable_smp
                0x00000000400007a4       0x18 /home/lodge/Allwinner/Orangepi-H616/external/cache/sources/arm-trusted-firmware-sunxi-mainline/master/build/sun50i_h616/debug/bl31/cortex_a53.o
 .text.asm.cortex_a53_errata_report
                0x00000000400007bc       0xe8 /home/lodge/Allwinner/Orangepi-H616/external/cache/sources/arm-trusted-firmware-sunxi-mainline/master/build/sun50i_h616/debug/bl31/cortex_a53.o
 .text.asm.cortex_a53_reset_func
                0x00000000400008a4       0x30 /home/lodge/Allwinner/Orangepi-H616/external/cache/sources/arm-trusted-firmware-sunxi-mainline/master/build/sun50i_h616/debug/bl31/cortex_a53.o
 .text.asm.cpu_get_rev_var
                0x00000000400008d4       0x10 /home/lodge/Allwinner/Orangepi-H616/external/cache/sources/arm-trusted-firmware-sunxi-mainline/master/build/sun50i_h616/debug/bl31/cpu_helpers.o
                0x00000000400008d4                cpu_get_rev_var
 .text.asm.cpu_rev_var_hs
                0x00000000400008e4       0x14 /home/lodge/Allwinner/Orangepi-H616/external/cache/sources/arm-trusted-firmware-sunxi-mainline/master/build/sun50i_h616/debug/bl31/cpu_helpers.o
                0x00000000400008e4                cpu_rev_var_hs
 .text.asm.cpu_rev_var_ls
                0x00000000400008f8       0x14 /home/lodge/Allwinner/Orangepi-H616/external/cache/sources/arm-trusted-firmware-sunxi-mainline/master/build/sun50i_h616/debug/bl31/cpu_helpers.o
                0x00000000400008f8                cpu_rev_var_ls
 .text.asm.crash_panic
                0x000000004000090c        0x8 /home/lodge/Allwinner/Orangepi-H616/external/cache/sources/arm-trusted-firmware-sunxi-mainline/master/build/sun50i_h616/debug/bl31/crash_reporting.o
 .text.asm.dcsw_op_level1
                0x0000000040000914       0x10 /home/lodge/Allwinner/Orangepi-H616/external/cache/sources/arm-trusted-firmware-sunxi-mainline/master/build/sun50i_h616/debug/bl31/cache_helpers.o
                0x0000000040000914                dcsw_op_level1
 .text.asm.dcsw_op_level2
                0x0000000040000924       0x10 /home/lodge/Allwinner/Orangepi-H616/external/cache/sources/arm-trusted-firmware-sunxi-mainline/master/build/sun50i_h616/debug/bl31/cache_helpers.o
                0x0000000040000924                dcsw_op_level2
 .text.asm.delegate_async_ea
                0x0000000040000934        0x4 /home/lodge/Allwinner/Orangepi-H616/external/cache/sources/arm-trusted-firmware-sunxi-mainline/master/build/sun50i_h616/debug/bl31/ea_delegate.o
 .text.asm.delegate_sync_ea
                0x0000000040000938        0x4 /home/lodge/Allwinner/Orangepi-H616/external/cache/sources/arm-trusted-firmware-sunxi-mainline/master/build/sun50i_h616/debug/bl31/ea_delegate.o
 .text.asm.do_cpu_reg_dump
                0x000000004000093c       0x20 /home/lodge/Allwinner/Orangepi-H616/external/cache/sources/arm-trusted-firmware-sunxi-mainline/master/build/sun50i_h616/debug/bl31/cpu_helpers.o
                0x000000004000093c                do_cpu_reg_dump
 .text.asm.do_dcsw_op
                0x000000004000095c       0xfc /home/lodge/Allwinner/Orangepi-H616/external/cache/sources/arm-trusted-firmware-sunxi-mainline/master/build/sun50i_h616/debug/bl31/cache_helpers.o
 .text.asm.do_panic
                0x0000000040000a58       0x48 /home/lodge/Allwinner/Orangepi-H616/external/cache/sources/arm-trusted-firmware-sunxi-mainline/master/build/sun50i_h616/debug/bl31/debug.o
                0x0000000040000a58                do_panic
 .text.asm.ea_proceed
                0x0000000040000aa0       0x9c /home/lodge/Allwinner/Orangepi-H616/external/cache/sources/arm-trusted-firmware-sunxi-mainline/master/build/sun50i_h616/debug/bl31/ea_delegate.o
 .text.asm.el1_sysregs_context_restore
                0x0000000040000b3c       0xa0 /home/lodge/Allwinner/Orangepi-H616/external/cache/sources/arm-trusted-firmware-sunxi-mainline/master/build/sun50i_h616/debug/bl31/context.o
                0x0000000040000b3c                el1_sysregs_context_restore
 .text.asm.el3_exit
                0x0000000040000bdc       0x80 /home/lodge/Allwinner/Orangepi-H616/external/cache/sources/arm-trusted-firmware-sunxi-mainline/master/build/sun50i_h616/debug/bl31/context.o
                0x0000000040000bdc                el3_exit
 .text.asm.el3_panic
                0x0000000040000c5c      0x238 /home/lodge/Allwinner/Orangepi-H616/external/cache/sources/arm-trusted-firmware-sunxi-mainline/master/build/sun50i_h616/debug/bl31/crash_reporting.o
                0x0000000040000c5c                el3_panic
 .text.asm.enable_mmu_direct_el3
                0x0000000040000e94       0x70 /home/lodge/Allwinner/Orangepi-H616/external/cache/sources/arm-trusted-firmware-sunxi-mainline/master/build/sun50i_h616/debug/bl31/enable_mmu.o
                0x0000000040000e94                enable_mmu_direct_el3
 .text.asm.enter_lower_el_async_ea
                0x0000000040000f04       0x1c /home/lodge/Allwinner/Orangepi-H616/external/cache/sources/arm-trusted-firmware-sunxi-mainline/master/build/sun50i_h616/debug/bl31/ea_delegate.o
                0x0000000040000f04                enter_lower_el_async_ea
                0x0000000040000f08                handle_lower_el_async_ea
 .text.asm.enter_lower_el_sync_ea
                0x0000000040000f20       0x7c /home/lodge/Allwinner/Orangepi-H616/external/cache/sources/arm-trusted-firmware-sunxi-mainline/master/build/sun50i_h616/debug/bl31/ea_delegate.o
                0x0000000040000f20                enter_lower_el_sync_ea
 .text.asm.errata_a53_855873_wa
                0x0000000040000f9c       0x1c /home/lodge/Allwinner/Orangepi-H616/external/cache/sources/arm-trusted-firmware-sunxi-mainline/master/build/sun50i_h616/debug/bl31/cortex_a53.o
 .text.asm.flush_dcache_range
                0x0000000040000fb8       0x38 /home/lodge/Allwinner/Orangepi-H616/external/cache/sources/arm-trusted-firmware-sunxi-mainline/master/build/sun50i_h616/debug/bl31/cache_helpers.o
                0x0000000040000fb8                flush_dcache_range
 .text.asm.get_cpu_ops_ptr
                0x0000000040000ff0       0x54 /home/lodge/Allwinner/Orangepi-H616/external/cache/sources/arm-trusted-firmware-sunxi-mainline/master/build/sun50i_h616/debug/bl31/cpu_helpers.o
                0x0000000040000ff0                get_cpu_ops_ptr
 .text.asm.init_cpu_data_ptr
                0x0000000040001044       0x14 /home/lodge/Allwinner/Orangepi-H616/external/cache/sources/arm-trusted-firmware-sunxi-mainline/master/build/sun50i_h616/debug/bl31/cpu_data.o
                0x0000000040001044                init_cpu_data_ptr
 .text.asm.init_cpu_ops
                0x0000000040001058       0x34 /home/lodge/Allwinner/Orangepi-H616/external/cache/sources/arm-trusted-firmware-sunxi-mainline/master/build/sun50i_h616/debug/bl31/cpu_helpers.o
                0x0000000040001058                init_cpu_ops
 .text.asm.inv_dcache_range
                0x000000004000108c       0x38 /home/lodge/Allwinner/Orangepi-H616/external/cache/sources/arm-trusted-firmware-sunxi-mainline/master/build/sun50i_h616/debug/bl31/cache_helpers.o
                0x000000004000108c                inv_dcache_range
 .text.asm.plat_crash_console_flush
                0x00000000400010c4        0x4 /home/lodge/Allwinner/Orangepi-H616/external/cache/sources/arm-trusted-firmware-sunxi-mainline/master/build/sun50i_h616/debug/bl31/plat_helpers.o
                0x00000000400010c4                plat_crash_console_flush
 .text.asm.plat_crash_console_init
                0x00000000400010c8       0x18 /home/lodge/Allwinner/Orangepi-H616/external/cache/sources/arm-trusted-firmware-sunxi-mainline/master/build/sun50i_h616/debug/bl31/plat_helpers.o
                0x00000000400010c8                plat_crash_console_init
 .text.asm.plat_crash_console_putc
                0x00000000400010e0        0x8 /home/lodge/Allwinner/Orangepi-H616/external/cache/sources/arm-trusted-firmware-sunxi-mainline/master/build/sun50i_h616/debug/bl31/plat_helpers.o
                0x00000000400010e0                plat_crash_console_putc
 .text.asm.plat_disable_acp
                0x00000000400010e8        0x4 /home/lodge/Allwinner/Orangepi-H616/external/cache/sources/arm-trusted-firmware-sunxi-mainline/master/build/sun50i_h616/debug/bl31/platform_helpers.o
                0x00000000400010e8                plat_disable_acp
 .text.asm.plat_get_my_stack
                0x00000000400010ec       0x1c /home/lodge/Allwinner/Orangepi-H616/external/cache/sources/arm-trusted-firmware-sunxi-mainline/master/build/sun50i_h616/debug/bl31/platform_mp_stack.o
                0x00000000400010ec                plat_get_my_stack
 .text.asm.plat_handle_double_fault
                0x0000000040001108        0x4 /home/lodge/Allwinner/Orangepi-H616/external/cache/sources/arm-trusted-firmware-sunxi-mainline/master/build/sun50i_h616/debug/bl31/platform_helpers.o
                0x0000000040001108                plat_handle_double_fault
 .text.asm.plat_handle_el3_ea
                0x000000004000110c        0x4 /home/lodge/Allwinner/Orangepi-H616/external/cache/sources/arm-trusted-firmware-sunxi-mainline/master/build/sun50i_h616/debug/bl31/platform_helpers.o
                0x000000004000110c                plat_handle_el3_ea
 .text.asm.plat_my_core_pos
                0x0000000040001110       0x14 /home/lodge/Allwinner/Orangepi-H616/external/cache/sources/arm-trusted-firmware-sunxi-mainline/master/build/sun50i_h616/debug/bl31/plat_helpers.o
                0x0000000040001110                plat_my_core_pos
 .text.asm.plat_panic_handler
                0x0000000040001124        0x8 /home/lodge/Allwinner/Orangepi-H616/external/cache/sources/arm-trusted-firmware-sunxi-mainline/master/build/sun50i_h616/debug/bl31/platform_helpers.o
                0x0000000040001124                plat_panic_handler
 .text.asm.plat_reset_handler
                0x000000004000112c        0x4 /home/lodge/Allwinner/Orangepi-H616/external/cache/sources/arm-trusted-firmware-sunxi-mainline/master/build/sun50i_h616/debug/bl31/platform_helpers.o
                0x000000004000112c                plat_reset_handler
 .text.asm.plat_set_my_stack
                0x0000000040001130       0x10 /home/lodge/Allwinner/Orangepi-H616/external/cache/sources/arm-trusted-firmware-sunxi-mainline/master/build/sun50i_h616/debug/bl31/platform_mp_stack.o
                0x0000000040001130                plat_set_my_stack
 .text.asm.platform_mem_init
                0x0000000040001140        0x4 /home/lodge/Allwinner/Orangepi-H616/external/cache/sources/arm-trusted-firmware-sunxi-mainline/master/build/sun50i_h616/debug/bl31/plat_helpers.o
                0x0000000040001140                platform_mem_init
 .text.asm.prepare_cpu_pwr_dwn
                0x0000000040001144       0x4c /home/lodge/Allwinner/Orangepi-H616/external/cache/sources/arm-trusted-firmware-sunxi-mainline/master/build/sun50i_h616/debug/bl31/cpu_helpers.o
                0x0000000040001144                prepare_cpu_pwr_dwn
 .text.asm.prepare_el3_entry
                0x0000000040001190       0x7c /home/lodge/Allwinner/Orangepi-H616/external/cache/sources/arm-trusted-firmware-sunxi-mainline/master/build/sun50i_h616/debug/bl31/context.o
                0x0000000040001190                prepare_el3_entry
 .text.asm.print_alignment
                0x000000004000120c        0xc /home/lodge/Allwinner/Orangepi-H616/external/cache/sources/arm-trusted-firmware-sunxi-mainline/master/build/sun50i_h616/debug/bl31/crash_reporting.o
 .text.asm.print_errata_status
                0x0000000040001218       0x60 /home/lodge/Allwinner/Orangepi-H616/external/cache/sources/arm-trusted-firmware-sunxi-mainline/master/build/sun50i_h616/debug/bl31/cpu_helpers.o
                0x0000000040001218                print_errata_status
 .text.asm.psci_do_pwrdown_cache_maintenance
                0x0000000040001278       0x3c /home/lodge/Allwinner/Orangepi-H616/external/cache/sources/arm-trusted-firmware-sunxi-mainline/master/build/sun50i_h616/debug/bl31/psci_helpers.o
                0x0000000040001278                psci_do_pwrdown_cache_maintenance
 .text.asm.psci_power_down_wfi
                0x00000000400012b4       0x10 /home/lodge/Allwinner/Orangepi-H616/external/cache/sources/arm-trusted-firmware-sunxi-mainline/master/build/sun50i_h616/debug/bl31/psci_helpers.o
                0x00000000400012b4                psci_power_down_wfi
 .text.asm.report_unhandled_exception
                0x00000000400012c4       0x28 /home/lodge/Allwinner/Orangepi-H616/external/cache/sources/arm-trusted-firmware-sunxi-mainline/master/build/sun50i_h616/debug/bl31/crash_reporting.o
                0x00000000400012c4                report_unhandled_exception
 .text.asm.report_unhandled_interrupt
                0x00000000400012ec       0x28 /home/lodge/Allwinner/Orangepi-H616/external/cache/sources/arm-trusted-firmware-sunxi-mainline/master/build/sun50i_h616/debug/bl31/crash_reporting.o
                0x00000000400012ec                report_unhandled_interrupt
 .text.asm.reset_handler
                0x0000000040001314       0x34 /home/lodge/Allwinner/Orangepi-H616/external/cache/sources/arm-trusted-firmware-sunxi-mainline/master/build/sun50i_h616/debug/bl31/cpu_helpers.o
                0x0000000040001314                reset_handler
 .text.asm.restore_gp_pmcr_pauth_regs
                0x0000000040001348       0x70 /home/lodge/Allwinner/Orangepi-H616/external/cache/sources/arm-trusted-firmware-sunxi-mainline/master/build/sun50i_h616/debug/bl31/context.o
                0x0000000040001348                restore_gp_pmcr_pauth_regs
 .text.asm.save_and_update_ptw_el1_sys_regs
                0x00000000400013b8       0x34 /home/lodge/Allwinner/Orangepi-H616/external/cache/sources/arm-trusted-firmware-sunxi-mainline/master/build/sun50i_h616/debug/bl31/context.o
                0x00000000400013b8                save_and_update_ptw_el1_sys_regs
 .text.asm.size_controlled_print
                0x00000000400013ec       0x4c /home/lodge/Allwinner/Orangepi-H616/external/cache/sources/arm-trusted-firmware-sunxi-mainline/master/build/sun50i_h616/debug/bl31/crash_reporting.o
 .text.asm.smc_handler
                0x0000000040001438       0xb0 /home/lodge/Allwinner/Orangepi-H616/external/cache/sources/arm-trusted-firmware-sunxi-mainline/master/build/sun50i_h616/debug/bl31/runtime_exceptions.o
 .text.asm.spin_lock
                0x00000000400014e8       0x20 /home/lodge/Allwinner/Orangepi-H616/external/cache/sources/arm-trusted-firmware-sunxi-mainline/master/build/sun50i_h616/debug/bl31/spinlock.o
                0x00000000400014e8                spin_lock
 .text.asm.spin_unlock
                0x0000000040001508        0x8 /home/lodge/Allwinner/Orangepi-H616/external/cache/sources/arm-trusted-firmware-sunxi-mainline/master/build/sun50i_h616/debug/bl31/spinlock.o
                0x0000000040001508                spin_unlock
 .text.asm.str_in_crash_buf_print
                0x0000000040001510       0x18 /home/lodge/Allwinner/Orangepi-H616/external/cache/sources/arm-trusted-firmware-sunxi-mainline/master/build/sun50i_h616/debug/bl31/crash_reporting.o
 .text.asm.zeromem
                0x0000000040001528        0x8 /home/lodge/Allwinner/Orangepi-H616/external/cache/sources/arm-trusted-firmware-sunxi-mainline/master/build/sun50i_h616/debug/bl31/misc_helpers.o
                0x0000000040001528                zeromem
 .text.asm.zeromem_dczva
                0x0000000040001530      0x114 /home/lodge/Allwinner/Orangepi-H616/external/cache/sources/arm-trusted-firmware-sunxi-mainline/master/build/sun50i_h616/debug/bl31/misc_helpers.o
                0x0000000040001530                zero_normalmem
 .text.axp_check_id
                0x0000000040001644       0x5c /home/lodge/Allwinner/Orangepi-H616/external/cache/sources/arm-trusted-firmware-sunxi-mainline/master/build/sun50i_h616/debug/bl31/common.o
                0x0000000040001644                axp_check_id
 .text.axp_clrsetbits
                0x00000000400016a0       0x54 /home/lodge/Allwinner/Orangepi-H616/external/cache/sources/arm-trusted-firmware-sunxi-mainline/master/build/sun50i_h616/debug/bl31/common.o
                0x00000000400016a0                axp_clrsetbits
 .text.axp_power_off
                0x00000000400016f4       0x10 /home/lodge/Allwinner/Orangepi-H616/external/cache/sources/arm-trusted-firmware-sunxi-mainline/master/build/sun50i_h616/debug/bl31/common.o
                0x00000000400016f4                axp_power_off
 .text.axp_read
                0x0000000040001704        0xc /home/lodge/Allwinner/Orangepi-H616/external/cache/sources/arm-trusted-firmware-sunxi-mainline/master/build/sun50i_h616/debug/bl31/sunxi_power.o
                0x0000000040001704                axp_read
 .text.axp_setup_regulators
                0x0000000040001710      0x384 /home/lodge/Allwinner/Orangepi-H616/external/cache/sources/arm-trusted-firmware-sunxi-mainline/master/build/sun50i_h616/debug/bl31/common.o
                0x0000000040001710                axp_setup_regulators
 .text.axp_write
                0x0000000040001a94       0x10 /home/lodge/Allwinner/Orangepi-H616/external/cache/sources/arm-trusted-firmware-sunxi-mainline/master/build/sun50i_h616/debug/bl31/sunxi_power.o
                0x0000000040001a94                axp_write
 .text.bakery_lock_get
                0x0000000040001aa4       0xec /home/lodge/Allwinner/Orangepi-H616/external/cache/sources/arm-trusted-firmware-sunxi-mainline/master/build/sun50i_h616/debug/bl31/bakery_lock_coherent.o
                0x0000000040001aa4                bakery_lock_get
 .text.bakery_lock_release
                0x0000000040001b90       0x64 /home/lodge/Allwinner/Orangepi-H616/external/cache/sources/arm-trusted-firmware-sunxi-mainline/master/build/sun50i_h616/debug/bl31/bakery_lock_coherent.o
                0x0000000040001b90                bakery_lock_release
 .text.bl31_early_platform_setup2
                0x0000000040001bf4       0x58 /home/lodge/Allwinner/Orangepi-H616/external/cache/sources/arm-trusted-firmware-sunxi-mainline/master/build/sun50i_h616/debug/bl31/sunxi_bl31_setup.o
                0x0000000040001bf4                bl31_early_platform_setup2
 .text.bl31_main
                0x0000000040001c4c       0x90 /home/lodge/Allwinner/Orangepi-H616/external/cache/sources/arm-trusted-firmware-sunxi-mainline/master/build/sun50i_h616/debug/bl31/bl31_main.o
                0x0000000040001c4c                bl31_main
 .text.bl31_plat_arch_setup
                0x0000000040001cdc        0x8 /home/lodge/Allwinner/Orangepi-H616/external/cache/sources/arm-trusted-firmware-sunxi-mainline/master/build/sun50i_h616/debug/bl31/sunxi_bl31_setup.o
                0x0000000040001cdc                bl31_plat_arch_setup
 .text.bl31_plat_get_next_image_ep_info
                0x0000000040001ce4       0x48 /home/lodge/Allwinner/Orangepi-H616/external/cache/sources/arm-trusted-firmware-sunxi-mainline/master/build/sun50i_h616/debug/bl31/sunxi_bl31_setup.o
                0x0000000040001ce4                bl31_plat_get_next_image_ep_info
 .text.bl31_plat_runtime_setup
                0x0000000040001d2c        0x8 /home/lodge/Allwinner/Orangepi-H616/external/cache/sources/arm-trusted-firmware-sunxi-mainline/master/build/sun50i_h616/debug/bl31/plat_common.o
                0x0000000040001d2c                bl31_plat_runtime_setup
 .text.bl31_platform_setup
                0x0000000040001d34      0x1e0 /home/lodge/Allwinner/Orangepi-H616/external/cache/sources/arm-trusted-firmware-sunxi-mainline/master/build/sun50i_h616/debug/bl31/sunxi_bl31_setup.o
                0x0000000040001d34                bl31_platform_setup
 .text.bl31_prepare_next_image_entry
                0x0000000040001f14       0xc0 /home/lodge/Allwinner/Orangepi-H616/external/cache/sources/arm-trusted-firmware-sunxi-mainline/master/build/sun50i_h616/debug/bl31/bl31_main.o
                0x0000000040001f14                bl31_prepare_next_image_entry
 .text.bl31_setup
                0x0000000040001fd4       0x14 /home/lodge/Allwinner/Orangepi-H616/external/cache/sources/arm-trusted-firmware-sunxi-mainline/master/build/sun50i_h616/debug/bl31/bl31_main.o
                0x0000000040001fd4                bl31_setup
 .text.cm_el1_sysregs_context_restore
                0x0000000040001fe8       0x90 /home/lodge/Allwinner/Orangepi-H616/external/cache/sources/arm-trusted-firmware-sunxi-mainline/master/build/sun50i_h616/debug/bl31/context_mgmt.o
                0x0000000040001fe8                cm_el1_sysregs_context_restore
 .text.cm_get_context
                0x0000000040002078       0x2c /home/lodge/Allwinner/Orangepi-H616/external/cache/sources/arm-trusted-firmware-sunxi-mainline/master/build/sun50i_h616/debug/bl31/bl31_context_mgmt.o
                0x0000000040002078                cm_get_context
 .text.cm_get_context_by_index
                0x00000000400020a4       0x3c /home/lodge/Allwinner/Orangepi-H616/external/cache/sources/arm-trusted-firmware-sunxi-mainline/master/build/sun50i_h616/debug/bl31/bl31_context_mgmt.o
                0x00000000400020a4                cm_get_context_by_index
 .text.cm_init  0x00000000400020e0        0x4 /home/lodge/Allwinner/Orangepi-H616/external/cache/sources/arm-trusted-firmware-sunxi-mainline/master/build/sun50i_h616/debug/bl31/context_mgmt.o
                0x00000000400020e0                cm_init
 .text.cm_init_context_by_index
                0x00000000400020e4       0x30 /home/lodge/Allwinner/Orangepi-H616/external/cache/sources/arm-trusted-firmware-sunxi-mainline/master/build/sun50i_h616/debug/bl31/context_mgmt.o
                0x00000000400020e4                cm_init_context_by_index
 .text.cm_init_my_context
                0x0000000040002114       0x30 /home/lodge/Allwinner/Orangepi-H616/external/cache/sources/arm-trusted-firmware-sunxi-mainline/master/build/sun50i_h616/debug/bl31/context_mgmt.o
                0x0000000040002114                cm_init_my_context
 .text.cm_prepare_el3_exit
                0x0000000040002144       0xd4 /home/lodge/Allwinner/Orangepi-H616/external/cache/sources/arm-trusted-firmware-sunxi-mainline/master/build/sun50i_h616/debug/bl31/context_mgmt.o
                0x0000000040002144                cm_prepare_el3_exit
 .text.cm_set_context_by_index
                0x0000000040002218       0x40 /home/lodge/Allwinner/Orangepi-H616/external/cache/sources/arm-trusted-firmware-sunxi-mainline/master/build/sun50i_h616/debug/bl31/bl31_context_mgmt.o
                0x0000000040002218                cm_set_context_by_index
 .text.cm_set_next_eret_context
                0x0000000040002258       0x4c /home/lodge/Allwinner/Orangepi-H616/external/cache/sources/arm-trusted-firmware-sunxi-mainline/master/build/sun50i_h616/debug/bl31/context_mgmt.o
                0x0000000040002258                cm_set_next_eret_context
 .text.cm_setup_context
                0x00000000400022a4      0x210 /home/lodge/Allwinner/Orangepi-H616/external/cache/sources/arm-trusted-firmware-sunxi-mainline/master/build/sun50i_h616/debug/bl31/context_mgmt.o
                0x00000000400022a4                cm_setup_context
 .text.console_flush
                0x00000000400024b4       0x54 /home/lodge/Allwinner/Orangepi-H616/external/cache/sources/arm-trusted-firmware-sunxi-mainline/master/build/sun50i_h616/debug/bl31/multi_console.o
                0x00000000400024b4                console_flush
 .text.console_is_registered
                0x0000000040002508       0x48 /home/lodge/Allwinner/Orangepi-H616/external/cache/sources/arm-trusted-firmware-sunxi-mainline/master/build/sun50i_h616/debug/bl31/multi_console.o
                0x0000000040002508                console_is_registered
 .text.console_putc
                0x0000000040002550       0x9c /home/lodge/Allwinner/Orangepi-H616/external/cache/sources/arm-trusted-firmware-sunxi-mainline/master/build/sun50i_h616/debug/bl31/multi_console.o
                0x0000000040002550                console_putc
 .text.console_register
                0x00000000400025ec       0x70 /home/lodge/Allwinner/Orangepi-H616/external/cache/sources/arm-trusted-firmware-sunxi-mainline/master/build/sun50i_h616/debug/bl31/multi_console.o
                0x00000000400025ec                console_register
 .text.console_switch_state
                0x000000004000265c        0xc /home/lodge/Allwinner/Orangepi-H616/external/cache/sources/arm-trusted-firmware-sunxi-mainline/master/build/sun50i_h616/debug/bl31/multi_console.o
                0x000000004000265c                console_switch_state
 .text.cpu_to_fdt32
                0x0000000040002668        0x8 /home/lodge/Allwinner/Orangepi-H616/external/cache/sources/arm-trusted-firmware-sunxi-mainline/master/build/sun50i_h616/debug/bl31/fdt_fixup.o
 .text.cpu_to_fdt32
                0x0000000040002670        0x8 /home/lodge/Allwinner/Orangepi-H616/external/cache/sources/arm-trusted-firmware-sunxi-mainline/master/build/sun50i_h616/debug/lib/libfdt.a(fdt_rw.o)
 .text.enable_mmu_el3
                0x0000000040002678       0x48 /home/lodge/Allwinner/Orangepi-H616/external/cache/sources/arm-trusted-firmware-sunxi-mainline/master/build/sun50i_h616/debug/bl31/xlat_tables_context.o
                0x0000000040002678                enable_mmu_el3
 .text.errata_needs_reporting
                0x00000000400026c0       0x60 /home/lodge/Allwinner/Orangepi-H616/external/cache/sources/arm-trusted-firmware-sunxi-mainline/master/build/sun50i_h616/debug/bl31/errata_report.o
                0x00000000400026c0                errata_needs_reporting
 .text.errata_print_msg
                0x0000000040002720       0x98 /home/lodge/Allwinner/Orangepi-H616/external/cache/sources/arm-trusted-firmware-sunxi-mainline/master/build/sun50i_h616/debug/bl31/errata_report.o
                0x0000000040002720                errata_print_msg
 .text.fdt32_ld
                0x00000000400027b8       0x24 /home/lodge/Allwinner/Orangepi-H616/external/cache/sources/arm-trusted-firmware-sunxi-mainline/master/build/sun50i_h616/debug/lib/libfdt.a(fdt.o)
 .text.fdt32_ld
                0x00000000400027dc       0x24 /home/lodge/Allwinner/Orangepi-H616/external/cache/sources/arm-trusted-firmware-sunxi-mainline/master/build/sun50i_h616/debug/lib/libfdt.a(fdt_ro.o)
 .text.fdt32_ld
                0x0000000040002800       0x24 /home/lodge/Allwinner/Orangepi-H616/external/cache/sources/arm-trusted-firmware-sunxi-mainline/master/build/sun50i_h616/debug/lib/libfdt.a(fdt_rw.o)
 .text.fdt64_ld
                0x0000000040002824       0x44 /home/lodge/Allwinner/Orangepi-H616/external/cache/sources/arm-trusted-firmware-sunxi-mainline/master/build/sun50i_h616/debug/lib/libfdt.a(fdt_ro.o)
 .text.fdt_add_property_
                0x0000000040002868      0x1a8 /home/lodge/Allwinner/Orangepi-H616/external/cache/sources/arm-trusted-firmware-sunxi-mainline/master/build/sun50i_h616/debug/lib/libfdt.a(fdt_rw.o)
 .text.fdt_add_reserved_memory
                0x0000000040002a10      0x194 /home/lodge/Allwinner/Orangepi-H616/external/cache/sources/arm-trusted-firmware-sunxi-mainline/master/build/sun50i_h616/debug/bl31/fdt_fixup.o
                0x0000000040002a10                fdt_add_reserved_memory
 .text.fdt_add_subnode
                0x0000000040002ba4       0x44 /home/lodge/Allwinner/Orangepi-H616/external/cache/sources/arm-trusted-firmware-sunxi-mainline/master/build/sun50i_h616/debug/lib/libfdt.a(fdt_rw.o)
                0x0000000040002ba4                fdt_add_subnode
 .text.fdt_add_subnode_namelen
                0x0000000040002be8      0x120 /home/lodge/Allwinner/Orangepi-H616/external/cache/sources/arm-trusted-firmware-sunxi-mainline/master/build/sun50i_h616/debug/lib/libfdt.a(fdt_rw.o)
                0x0000000040002be8                fdt_add_subnode_namelen
 .text.fdt_address_cells
                0x0000000040002d08       0x34 /home/lodge/Allwinner/Orangepi-H616/external/cache/sources/arm-trusted-firmware-sunxi-mainline/master/build/sun50i_h616/debug/lib/libfdt.a(fdt_addresses.o)
                0x0000000040002d08                fdt_address_cells
 .text.fdt_blocks_misordered_
                0x0000000040002d3c       0x88 /home/lodge/Allwinner/Orangepi-H616/external/cache/sources/arm-trusted-firmware-sunxi-mainline/master/build/sun50i_h616/debug/lib/libfdt.a(fdt_rw.o)
 .text.fdt_cells
                0x0000000040002dc4       0x60 /home/lodge/Allwinner/Orangepi-H616/external/cache/sources/arm-trusted-firmware-sunxi-mainline/master/build/sun50i_h616/debug/lib/libfdt.a(fdt_addresses.o)
 .text.fdt_check_header
                0x0000000040002e24      0x128 /home/lodge/Allwinner/Orangepi-H616/external/cache/sources/arm-trusted-firmware-sunxi-mainline/master/build/sun50i_h616/debug/lib/libfdt.a(fdt.o)
                0x0000000040002e24                fdt_check_header
 .text.fdt_check_node_offset_
                0x0000000040002f4c       0x40 /home/lodge/Allwinner/Orangepi-H616/external/cache/sources/arm-trusted-firmware-sunxi-mainline/master/build/sun50i_h616/debug/lib/libfdt.a(fdt.o)
                0x0000000040002f4c                fdt_check_node_offset_
 .text.fdt_check_prop_offset_
                0x0000000040002f8c       0x40 /home/lodge/Allwinner/Orangepi-H616/external/cache/sources/arm-trusted-firmware-sunxi-mainline/master/build/sun50i_h616/debug/lib/libfdt.a(fdt.o)
                0x0000000040002f8c                fdt_check_prop_offset_
 .text.fdt_find_string_
                0x0000000040002fcc       0x70 /home/lodge/Allwinner/Orangepi-H616/external/cache/sources/arm-trusted-firmware-sunxi-mainline/master/build/sun50i_h616/debug/lib/libfdt.a(fdt.o)
                0x0000000040002fcc                fdt_find_string_
 .text.fdt_first_property_offset
                0x000000004000303c       0x38 /home/lodge/Allwinner/Orangepi-H616/external/cache/sources/arm-trusted-firmware-sunxi-mainline/master/build/sun50i_h616/debug/lib/libfdt.a(fdt_ro.o)
                0x000000004000303c                fdt_first_property_offset
 .text.fdt_first_subnode
                0x0000000040003074       0x34 /home/lodge/Allwinner/Orangepi-H616/external/cache/sources/arm-trusted-firmware-sunxi-mainline/master/build/sun50i_h616/debug/lib/libfdt.a(fdt.o)
                0x0000000040003074                fdt_first_subnode
 .text.fdt_get_alias_namelen
                0x00000000400030a8       0x64 /home/lodge/Allwinner/Orangepi-H616/external/cache/sources/arm-trusted-firmware-sunxi-mainline/master/build/sun50i_h616/debug/lib/libfdt.a(fdt_ro.o)
                0x00000000400030a8                fdt_get_alias_namelen
 .text.fdt_get_name
                0x000000004000310c       0xac /home/lodge/Allwinner/Orangepi-H616/external/cache/sources/arm-trusted-firmware-sunxi-mainline/master/build/sun50i_h616/debug/lib/libfdt.a(fdt_ro.o)
                0x000000004000310c                fdt_get_name
 .text.fdt_get_property
                0x00000000400031b8       0x4c /home/lodge/Allwinner/Orangepi-H616/external/cache/sources/arm-trusted-firmware-sunxi-mainline/master/build/sun50i_h616/debug/lib/libfdt.a(fdt_ro.o)
                0x00000000400031b8                fdt_get_property
 .text.fdt_get_property_by_offset_
                0x0000000040003204       0x68 /home/lodge/Allwinner/Orangepi-H616/external/cache/sources/arm-trusted-firmware-sunxi-mainline/master/build/sun50i_h616/debug/lib/libfdt.a(fdt_ro.o)
 .text.fdt_get_property_namelen
                0x000000004000326c       0x54 /home/lodge/Allwinner/Orangepi-H616/external/cache/sources/arm-trusted-firmware-sunxi-mainline/master/build/sun50i_h616/debug/lib/libfdt.a(fdt_ro.o)
                0x000000004000326c                fdt_get_property_namelen
 .text.fdt_get_property_namelen_
                0x00000000400032c0       0xd8 /home/lodge/Allwinner/Orangepi-H616/external/cache/sources/arm-trusted-firmware-sunxi-mainline/master/build/sun50i_h616/debug/lib/libfdt.a(fdt_ro.o)
 .text.fdt_get_string
                0x0000000040003398      0x114 /home/lodge/Allwinner/Orangepi-H616/external/cache/sources/arm-trusted-firmware-sunxi-mainline/master/build/sun50i_h616/debug/lib/libfdt.a(fdt_ro.o)
                0x0000000040003398                fdt_get_string
 .text.fdt_getprop
                0x00000000400034ac       0x4c /home/lodge/Allwinner/Orangepi-H616/external/cache/sources/arm-trusted-firmware-sunxi-mainline/master/build/sun50i_h616/debug/lib/libfdt.a(fdt_ro.o)
                0x00000000400034ac                fdt_getprop
 .text.fdt_getprop_namelen
                0x00000000400034f8       0x6c /home/lodge/Allwinner/Orangepi-H616/external/cache/sources/arm-trusted-firmware-sunxi-mainline/master/build/sun50i_h616/debug/lib/libfdt.a(fdt_ro.o)
                0x00000000400034f8                fdt_getprop_namelen
 .text.fdt_header_size
                0x0000000040003564       0x18 /home/lodge/Allwinner/Orangepi-H616/external/cache/sources/arm-trusted-firmware-sunxi-mainline/master/build/sun50i_h616/debug/lib/libfdt.a(fdt.o)
                0x0000000040003564                fdt_header_size
 .text.fdt_header_size_
                0x000000004000357c       0x34 /home/lodge/Allwinner/Orangepi-H616/external/cache/sources/arm-trusted-firmware-sunxi-mainline/master/build/sun50i_h616/debug/lib/libfdt.a(fdt.o)
                0x000000004000357c                fdt_header_size_
 .text.fdt_mem_rsv
                0x00000000400035b0       0x58 /home/lodge/Allwinner/Orangepi-H616/external/cache/sources/arm-trusted-firmware-sunxi-mainline/master/build/sun50i_h616/debug/lib/libfdt.a(fdt_ro.o)
 .text.fdt_move
                0x0000000040003608       0x5c /home/lodge/Allwinner/Orangepi-H616/external/cache/sources/arm-trusted-firmware-sunxi-mainline/master/build/sun50i_h616/debug/lib/libfdt.a(fdt.o)
                0x0000000040003608                fdt_move
 .text.fdt_next_node
                0x0000000040003664       0xb0 /home/lodge/Allwinner/Orangepi-H616/external/cache/sources/arm-trusted-firmware-sunxi-mainline/master/build/sun50i_h616/debug/lib/libfdt.a(fdt.o)
                0x0000000040003664                fdt_next_node
 .text.fdt_next_property_offset
                0x0000000040003714       0x38 /home/lodge/Allwinner/Orangepi-H616/external/cache/sources/arm-trusted-firmware-sunxi-mainline/master/build/sun50i_h616/debug/lib/libfdt.a(fdt_ro.o)
                0x0000000040003714                fdt_next_property_offset
 .text.fdt_next_subnode
                0x000000004000374c       0x50 /home/lodge/Allwinner/Orangepi-H616/external/cache/sources/arm-trusted-firmware-sunxi-mainline/master/build/sun50i_h616/debug/lib/libfdt.a(fdt.o)
                0x000000004000374c                fdt_next_subnode
 .text.fdt_next_tag
                0x000000004000379c      0x130 /home/lodge/Allwinner/Orangepi-H616/external/cache/sources/arm-trusted-firmware-sunxi-mainline/master/build/sun50i_h616/debug/lib/libfdt.a(fdt.o)
                0x000000004000379c                fdt_next_tag
 .text.fdt_node_check_compatible
                0x00000000400038cc       0x4c /home/lodge/Allwinner/Orangepi-H616/external/cache/sources/arm-trusted-firmware-sunxi-mainline/master/build/sun50i_h616/debug/lib/libfdt.a(fdt_ro.o)
                0x00000000400038cc                fdt_node_check_compatible
 .text.fdt_node_offset_by_compatible
                0x0000000040003918       0x84 /home/lodge/Allwinner/Orangepi-H616/external/cache/sources/arm-trusted-firmware-sunxi-mainline/master/build/sun50i_h616/debug/lib/libfdt.a(fdt_ro.o)
                0x0000000040003918                fdt_node_offset_by_compatible
 .text.fdt_num_mem_rsv
                0x000000004000399c       0x44 /home/lodge/Allwinner/Orangepi-H616/external/cache/sources/arm-trusted-firmware-sunxi-mainline/master/build/sun50i_h616/debug/lib/libfdt.a(fdt_ro.o)
                0x000000004000399c                fdt_num_mem_rsv
 .text.fdt_offset_ptr
                0x00000000400039e0       0x88 /home/lodge/Allwinner/Orangepi-H616/external/cache/sources/arm-trusted-firmware-sunxi-mainline/master/build/sun50i_h616/debug/lib/libfdt.a(fdt.o)
                0x00000000400039e0                fdt_offset_ptr
 .text.fdt_open_into
                0x0000000040003a68      0x1b0 /home/lodge/Allwinner/Orangepi-H616/external/cache/sources/arm-trusted-firmware-sunxi-mainline/master/build/sun50i_h616/debug/lib/libfdt.a(fdt_rw.o)
                0x0000000040003a68                fdt_open_into
 .text.fdt_pack
                0x0000000040003c18       0x78 /home/lodge/Allwinner/Orangepi-H616/external/cache/sources/arm-trusted-firmware-sunxi-mainline/master/build/sun50i_h616/debug/lib/libfdt.a(fdt_rw.o)
                0x0000000040003c18                fdt_pack
 .text.fdt_packblocks_
                0x0000000040003c90       0xdc /home/lodge/Allwinner/Orangepi-H616/external/cache/sources/arm-trusted-firmware-sunxi-mainline/master/build/sun50i_h616/debug/lib/libfdt.a(fdt_rw.o)
 .text.fdt_path_offset
                0x0000000040003d6c       0x34 /home/lodge/Allwinner/Orangepi-H616/external/cache/sources/arm-trusted-firmware-sunxi-mainline/master/build/sun50i_h616/debug/lib/libfdt.a(fdt_ro.o)
                0x0000000040003d6c                fdt_path_offset
 .text.fdt_path_offset_namelen
                0x0000000040003da0      0x100 /home/lodge/Allwinner/Orangepi-H616/external/cache/sources/arm-trusted-firmware-sunxi-mainline/master/build/sun50i_h616/debug/lib/libfdt.a(fdt_ro.o)
                0x0000000040003da0                fdt_path_offset_namelen
 .text.fdt_ro_probe_
                0x0000000040003ea0       0x9c /home/lodge/Allwinner/Orangepi-H616/external/cache/sources/arm-trusted-firmware-sunxi-mainline/master/build/sun50i_h616/debug/lib/libfdt.a(fdt.o)
                0x0000000040003ea0                fdt_ro_probe_
 .text.fdt_rw_probe_
                0x0000000040003f3c       0x74 /home/lodge/Allwinner/Orangepi-H616/external/cache/sources/arm-trusted-firmware-sunxi-mainline/master/build/sun50i_h616/debug/lib/libfdt.a(fdt_rw.o)
 .text.fdt_setprop
                0x0000000040003fb0       0x54 /home/lodge/Allwinner/Orangepi-H616/external/cache/sources/arm-trusted-firmware-sunxi-mainline/master/build/sun50i_h616/debug/lib/libfdt.a(fdt_rw.o)
                0x0000000040003fb0                fdt_setprop
 .text.fdt_setprop_placeholder
                0x0000000040004004       0xdc /home/lodge/Allwinner/Orangepi-H616/external/cache/sources/arm-trusted-firmware-sunxi-mainline/master/build/sun50i_h616/debug/lib/libfdt.a(fdt_rw.o)
                0x0000000040004004                fdt_setprop_placeholder
 .text.fdt_setprop_u32
                0x00000000400040e0       0x30 /home/lodge/Allwinner/Orangepi-H616/external/cache/sources/arm-trusted-firmware-sunxi-mainline/master/build/sun50i_h616/debug/bl31/fdt_fixup.o
 .text.fdt_size_cells
                0x0000000040004110       0x28 /home/lodge/Allwinner/Orangepi-H616/external/cache/sources/arm-trusted-firmware-sunxi-mainline/master/build/sun50i_h616/debug/lib/libfdt.a(fdt_addresses.o)
                0x0000000040004110                fdt_size_cells
 .text.fdt_splice_
                0x0000000040004138       0xa8 /home/lodge/Allwinner/Orangepi-H616/external/cache/sources/arm-trusted-firmware-sunxi-mainline/master/build/sun50i_h616/debug/lib/libfdt.a(fdt_rw.o)
 .text.fdt_splice_struct_
                0x00000000400041e0       0x68 /home/lodge/Allwinner/Orangepi-H616/external/cache/sources/arm-trusted-firmware-sunxi-mainline/master/build/sun50i_h616/debug/lib/libfdt.a(fdt_rw.o)
 .text.fdt_stringlist_contains
                0x0000000040004248       0x98 /home/lodge/Allwinner/Orangepi-H616/external/cache/sources/arm-trusted-firmware-sunxi-mainline/master/build/sun50i_h616/debug/lib/libfdt.a(fdt_ro.o)
                0x0000000040004248                fdt_stringlist_contains
 .text.fdt_subnode_offset
                0x00000000400042e0       0x44 /home/lodge/Allwinner/Orangepi-H616/external/cache/sources/arm-trusted-firmware-sunxi-mainline/master/build/sun50i_h616/debug/lib/libfdt.a(fdt_ro.o)
                0x00000000400042e0                fdt_subnode_offset
 .text.fdt_subnode_offset_namelen
                0x0000000040004324       0xe8 /home/lodge/Allwinner/Orangepi-H616/external/cache/sources/arm-trusted-firmware-sunxi-mainline/master/build/sun50i_h616/debug/lib/libfdt.a(fdt_ro.o)
                0x0000000040004324                fdt_subnode_offset_namelen
 .text.generic_delay_timer_init
                0x000000004000440c       0x44 /home/lodge/Allwinner/Orangepi-H616/external/cache/sources/arm-trusted-firmware-sunxi-mainline/master/build/sun50i_h616/debug/bl31/generic_delay_timer.o
                0x000000004000440c                generic_delay_timer_init
 .text.generic_delay_timer_init_args
                0x0000000040004450       0x20 /home/lodge/Allwinner/Orangepi-H616/external/cache/sources/arm-trusted-firmware-sunxi-mainline/master/build/sun50i_h616/debug/bl31/generic_delay_timer.o
                0x0000000040004450                generic_delay_timer_init_args
 .text.get_arm_std_svc_args
                0x0000000040004470       0x30 /home/lodge/Allwinner/Orangepi-H616/external/cache/sources/arm-trusted-firmware-sunxi-mainline/master/build/sun50i_h616/debug/bl31/bl31_main.o
                0x0000000040004470                get_arm_std_svc_args
 .text.get_interrupt_type_handler
                0x00000000400044a0       0x24 /home/lodge/Allwinner/Orangepi-H616/external/cache/sources/arm-trusted-firmware-sunxi-mainline/master/build/sun50i_h616/debug/bl31/interrupt_mgmt.o
                0x00000000400044a0                get_interrupt_type_handler
 .text.get_scr_el3_from_routing_model
                0x00000000400044c4       0x50 /home/lodge/Allwinner/Orangepi-H616/external/cache/sources/arm-trusted-firmware-sunxi-mainline/master/build/sun50i_h616/debug/bl31/interrupt_mgmt.o
                0x00000000400044c4                get_scr_el3_from_routing_model
 .text.get_timer_value
                0x0000000040004514        0xc /home/lodge/Allwinner/Orangepi-H616/external/cache/sources/arm-trusted-firmware-sunxi-mainline/master/build/sun50i_h616/debug/bl31/generic_delay_timer.o
 .text.gicd_clr_igroupr
                0x0000000040004520       0x30 /home/lodge/Allwinner/Orangepi-H616/external/cache/sources/arm-trusted-firmware-sunxi-mainline/master/build/sun50i_h616/debug/bl31/gicdv2_helpers.o
                0x0000000040004520                gicd_clr_igroupr
 .text.gicd_read_icfgr
                0x0000000040004550       0x14 /home/lodge/Allwinner/Orangepi-H616/external/cache/sources/arm-trusted-firmware-sunxi-mainline/master/build/sun50i_h616/debug/bl31/gicdv2_helpers.o
                0x0000000040004550                gicd_read_icfgr
 .text.gicd_read_igroupr
                0x0000000040004564       0x14 /home/lodge/Allwinner/Orangepi-H616/external/cache/sources/arm-trusted-firmware-sunxi-mainline/master/build/sun50i_h616/debug/bl31/gicdv2_helpers.o
                0x0000000040004564                gicd_read_igroupr
 .text.gicd_set_icfgr
                0x0000000040004578       0x40 /home/lodge/Allwinner/Orangepi-H616/external/cache/sources/arm-trusted-firmware-sunxi-mainline/master/build/sun50i_h616/debug/bl31/gicdv2_helpers.o
                0x0000000040004578                gicd_set_icfgr
 .text.gicd_set_ipriorityr
                0x00000000400045b8       0x14 /home/lodge/Allwinner/Orangepi-H616/external/cache/sources/arm-trusted-firmware-sunxi-mainline/master/build/sun50i_h616/debug/bl31/gicdv2_helpers.o
                0x00000000400045b8                gicd_set_ipriorityr
 .text.gicd_set_isenabler
                0x00000000400045cc        0xc /home/lodge/Allwinner/Orangepi-H616/external/cache/sources/arm-trusted-firmware-sunxi-mainline/master/build/sun50i_h616/debug/bl31/gicdv2_helpers.o
                0x00000000400045cc                gicd_set_isenabler
 .text.gicd_write_icenabler
                0x00000000400045d8       0x14 /home/lodge/Allwinner/Orangepi-H616/external/cache/sources/arm-trusted-firmware-sunxi-mainline/master/build/sun50i_h616/debug/bl31/gicdv2_helpers.o
                0x00000000400045d8                gicd_write_icenabler
 .text.gicd_write_icfgr
                0x00000000400045ec       0x14 /home/lodge/Allwinner/Orangepi-H616/external/cache/sources/arm-trusted-firmware-sunxi-mainline/master/build/sun50i_h616/debug/bl31/gicdv2_helpers.o
                0x00000000400045ec                gicd_write_icfgr
 .text.gicd_write_igroupr
                0x0000000040004600       0x14 /home/lodge/Allwinner/Orangepi-H616/external/cache/sources/arm-trusted-firmware-sunxi-mainline/master/build/sun50i_h616/debug/bl31/gicdv2_helpers.o
                0x0000000040004600                gicd_write_igroupr
 .text.gicd_write_ipriorityr
                0x0000000040004614       0x10 /home/lodge/Allwinner/Orangepi-H616/external/cache/sources/arm-trusted-firmware-sunxi-mainline/master/build/sun50i_h616/debug/bl31/gicdv2_helpers.o
                0x0000000040004614                gicd_write_ipriorityr
 .text.gicd_write_isenabler
                0x0000000040004624       0x14 /home/lodge/Allwinner/Orangepi-H616/external/cache/sources/arm-trusted-firmware-sunxi-mainline/master/build/sun50i_h616/debug/bl31/gicdv2_helpers.o
                0x0000000040004624                gicd_write_isenabler
 .text.gicv2_cpuif_disable
                0x0000000040004638       0x4c /home/lodge/Allwinner/Orangepi-H616/external/cache/sources/arm-trusted-firmware-sunxi-mainline/master/build/sun50i_h616/debug/bl31/gicv2_main.o
                0x0000000040004638                gicv2_cpuif_disable
 .text.gicv2_cpuif_enable
                0x0000000040004684       0x4c /home/lodge/Allwinner/Orangepi-H616/external/cache/sources/arm-trusted-firmware-sunxi-mainline/master/build/sun50i_h616/debug/bl31/gicv2_main.o
                0x0000000040004684                gicv2_cpuif_enable
 .text.gicv2_distif_init
                0x00000000400046d0       0x78 /home/lodge/Allwinner/Orangepi-H616/external/cache/sources/arm-trusted-firmware-sunxi-mainline/master/build/sun50i_h616/debug/bl31/gicv2_main.o
                0x00000000400046d0                gicv2_distif_init
 .text.gicv2_driver_init
                0x0000000040004748       0x88 /home/lodge/Allwinner/Orangepi-H616/external/cache/sources/arm-trusted-firmware-sunxi-mainline/master/build/sun50i_h616/debug/bl31/gicv2_main.o
                0x0000000040004748                gicv2_driver_init
 .text.gicv2_get_pending_interrupt_type
                0x00000000400047d0       0x44 /home/lodge/Allwinner/Orangepi-H616/external/cache/sources/arm-trusted-firmware-sunxi-mainline/master/build/sun50i_h616/debug/bl31/gicv2_main.o
                0x00000000400047d0                gicv2_get_pending_interrupt_type
 .text.gicv2_pcpu_distif_init
                0x0000000040004814       0x68 /home/lodge/Allwinner/Orangepi-H616/external/cache/sources/arm-trusted-firmware-sunxi-mainline/master/build/sun50i_h616/debug/bl31/gicv2_main.o
                0x0000000040004814                gicv2_pcpu_distif_init
 .text.gicv2_secure_ppi_sgi_setup_props
                0x000000004000487c      0x114 /home/lodge/Allwinner/Orangepi-H616/external/cache/sources/arm-trusted-firmware-sunxi-mainline/master/build/sun50i_h616/debug/bl31/gicv2_helpers.o
                0x000000004000487c                gicv2_secure_ppi_sgi_setup_props
 .text.gicv2_secure_spis_configure_props
                0x0000000040004990       0xe4 /home/lodge/Allwinner/Orangepi-H616/external/cache/sources/arm-trusted-firmware-sunxi-mainline/master/build/sun50i_h616/debug/bl31/gicv2_helpers.o
                0x0000000040004990                gicv2_secure_spis_configure_props
 .text.gicv2_spis_configure_defaults
                0x0000000040004a74       0x9c /home/lodge/Allwinner/Orangepi-H616/external/cache/sources/arm-trusted-firmware-sunxi-mainline/master/build/sun50i_h616/debug/bl31/gicv2_helpers.o
                0x0000000040004a74                gicv2_spis_configure_defaults
 .text.init_xlat_tables
                0x0000000040004b10       0x68 /home/lodge/Allwinner/Orangepi-H616/external/cache/sources/arm-trusted-firmware-sunxi-mainline/master/build/sun50i_h616/debug/bl31/xlat_tables_context.o
                0x0000000040004b10                init_xlat_tables
 .text.init_xlat_tables_ctx
                0x0000000040004b78      0x1c8 /home/lodge/Allwinner/Orangepi-H616/external/cache/sources/arm-trusted-firmware-sunxi-mainline/master/build/sun50i_h616/debug/bl31/xlat_tables_core.o
                0x0000000040004b78                init_xlat_tables_ctx
 .text.is_mmu_enabled_ctx
                0x0000000040004d40       0x8c /home/lodge/Allwinner/Orangepi-H616/external/cache/sources/arm-trusted-firmware-sunxi-mainline/master/build/sun50i_h616/debug/bl31/xlat_tables_arch.o
                0x0000000040004d40                is_mmu_enabled_ctx
 .text.mdelay   0x0000000040004dcc       0x34 /home/lodge/Allwinner/Orangepi-H616/external/cache/sources/arm-trusted-firmware-sunxi-mainline/master/build/sun50i_h616/debug/bl31/delay_timer.o
                0x0000000040004dcc                mdelay
 .text.memchr   0x0000000040004e00       0x2c /home/lodge/Allwinner/Orangepi-H616/external/cache/sources/arm-trusted-firmware-sunxi-mainline/master/build/sun50i_h616/debug/lib/libc.a(memchr.o)
                0x0000000040004e00                memchr
 .text.memcmp   0x0000000040004e2c       0x34 /home/lodge/Allwinner/Orangepi-H616/external/cache/sources/arm-trusted-firmware-sunxi-mainline/master/build/sun50i_h616/debug/lib/libc.a(memcmp.o)
                0x0000000040004e2c                memcmp
 .text.memcpy   0x0000000040004e60       0x20 /home/lodge/Allwinner/Orangepi-H616/external/cache/sources/arm-trusted-firmware-sunxi-mainline/master/build/sun50i_h616/debug/lib/libc.a(memcpy.o)
                0x0000000040004e60                memcpy
 .text.memmove  0x0000000040004e80       0x34 /home/lodge/Allwinner/Orangepi-H616/external/cache/sources/arm-trusted-firmware-sunxi-mainline/master/build/sun50i_h616/debug/lib/libc.a(memmove.o)
                0x0000000040004e80                memmove
 .text.memset   0x0000000040004eb4       0x78 /home/lodge/Allwinner/Orangepi-H616/external/cache/sources/arm-trusted-firmware-sunxi-mainline/master/build/sun50i_h616/debug/lib/libc.a(memset.o)
                0x0000000040004eb4                memset
 .text.mmap_add
                0x0000000040004f2c       0x10 /home/lodge/Allwinner/Orangepi-H616/external/cache/sources/arm-trusted-firmware-sunxi-mainline/master/build/sun50i_h616/debug/bl31/xlat_tables_context.o
                0x0000000040004f2c                mmap_add
 .text.mmap_add_ctx
                0x0000000040004f3c       0x3c /home/lodge/Allwinner/Orangepi-H616/external/cache/sources/arm-trusted-firmware-sunxi-mainline/master/build/sun50i_h616/debug/bl31/xlat_tables_core.o
                0x0000000040004f3c                mmap_add_ctx
 .text.mmap_add_region
                0x0000000040004f78       0x34 /home/lodge/Allwinner/Orangepi-H616/external/cache/sources/arm-trusted-firmware-sunxi-mainline/master/build/sun50i_h616/debug/bl31/xlat_tables_context.o
                0x0000000040004f78                mmap_add_region
 .text.mmap_add_region_ctx
                0x0000000040004fac      0x25c /home/lodge/Allwinner/Orangepi-H616/external/cache/sources/arm-trusted-firmware-sunxi-mainline/master/build/sun50i_h616/debug/bl31/xlat_tables_core.o
                0x0000000040004fac                mmap_add_region_ctx
 .text.nextprop_
                0x0000000040005208       0x64 /home/lodge/Allwinner/Orangepi-H616/external/cache/sources/arm-trusted-firmware-sunxi-mainline/master/build/sun50i_h616/debug/lib/libfdt.a(fdt_ro.o)
 .text.plat_arm_set_twedel_scr_el3
                0x000000004000526c        0x8 /home/lodge/Allwinner/Orangepi-H616/external/cache/sources/arm-trusted-firmware-sunxi-mainline/master/build/sun50i_h616/debug/bl31/plat_common.o
                0x000000004000526c                plat_arm_set_twedel_scr_el3
 .text.plat_core_pos_by_mpidr
                0x0000000040005274       0x34 /home/lodge/Allwinner/Orangepi-H616/external/cache/sources/arm-trusted-firmware-sunxi-mainline/master/build/sun50i_h616/debug/bl31/sunxi_topology.o
                0x0000000040005274                plat_core_pos_by_mpidr
 .text.plat_default_ea_handler
                0x00000000400052a8       0x84 /home/lodge/Allwinner/Orangepi-H616/external/cache/sources/arm-trusted-firmware-sunxi-mainline/master/build/sun50i_h616/debug/bl31/plat_common.o
                0x00000000400052a8                plat_ea_handler
                0x00000000400052a8                plat_default_ea_handler
 .text.plat_get_power_domain_tree_desc
                0x000000004000532c        0xc /home/lodge/Allwinner/Orangepi-H616/external/cache/sources/arm-trusted-firmware-sunxi-mainline/master/build/sun50i_h616/debug/bl31/sunxi_topology.o
                0x000000004000532c                plat_get_power_domain_tree_desc
 .text.plat_get_soc_revision
                0x0000000040005338        0x8 /home/lodge/Allwinner/Orangepi-H616/external/cache/sources/arm-trusted-firmware-sunxi-mainline/master/build/sun50i_h616/debug/bl31/plat_bl_common.o
                0x0000000040005338                plat_get_soc_revision
 .text.plat_get_soc_version
                0x0000000040005340        0x8 /home/lodge/Allwinner/Orangepi-H616/external/cache/sources/arm-trusted-firmware-sunxi-mainline/master/build/sun50i_h616/debug/bl31/plat_bl_common.o
                0x0000000040005340                plat_get_soc_version
 .text.plat_get_syscnt_freq2
                0x0000000040005348        0xc /home/lodge/Allwinner/Orangepi-H616/external/cache/sources/arm-trusted-firmware-sunxi-mainline/master/build/sun50i_h616/debug/bl31/sunxi_common.o
                0x0000000040005348                plat_get_syscnt_freq2
 .text.plat_get_target_pwr_state
                0x0000000040005354       0x44 /home/lodge/Allwinner/Orangepi-H616/external/cache/sources/arm-trusted-firmware-sunxi-mainline/master/build/sun50i_h616/debug/bl31/plat_psci_common.o
                0x0000000040005354                plat_get_target_pwr_state
 .text.plat_ic_get_pending_interrupt_type
                0x0000000040005398       0x30 /home/lodge/Allwinner/Orangepi-H616/external/cache/sources/arm-trusted-firmware-sunxi-mainline/master/build/sun50i_h616/debug/bl31/plat_gicv2.o
                0x0000000040005398                plat_ic_get_pending_interrupt_type
 .text.plat_is_smccc_feature_available
                0x00000000400053c8        0x8 /home/lodge/Allwinner/Orangepi-H616/external/cache/sources/arm-trusted-firmware-sunxi-mainline/master/build/sun50i_h616/debug/bl31/plat_bl_common.o
                0x00000000400053c8                plat_is_smccc_feature_available
 .text.plat_log_get_prefix
                0x00000000400053d0       0x30 /home/lodge/Allwinner/Orangepi-H616/external/cache/sources/arm-trusted-firmware-sunxi-mainline/master/build/sun50i_h616/debug/bl31/plat_log_common.o
                0x00000000400053d0                plat_log_get_prefix
 .text.plat_setup_psci_ops
                0x0000000040005400       0x84 /home/lodge/Allwinner/Orangepi-H616/external/cache/sources/arm-trusted-firmware-sunxi-mainline/master/build/sun50i_h616/debug/bl31/sunxi_pm.o
                0x0000000040005400                plat_setup_psci_ops
 .text.print_entry_point_info
                0x0000000040005484       0x38 /home/lodge/Allwinner/Orangepi-H616/external/cache/sources/arm-trusted-firmware-sunxi-mainline/master/build/sun50i_h616/debug/bl31/bl_common.o
                0x0000000040005484                print_entry_point_info
 .text.printf   0x00000000400054bc       0x54 /home/lodge/Allwinner/Orangepi-H616/external/cache/sources/arm-trusted-firmware-sunxi-mainline/master/build/sun50i_h616/debug/lib/libc.a(printf.o)
                0x00000000400054bc                printf
 .text.psci_acquire_pwr_domain_locks
                0x0000000040005510       0x6c /home/lodge/Allwinner/Orangepi-H616/external/cache/sources/arm-trusted-firmware-sunxi-mainline/master/build/sun50i_h616/debug/bl31/psci_common.o
                0x0000000040005510                psci_acquire_pwr_domain_locks
 .text.psci_affinity_info
                0x000000004000557c       0x58 /home/lodge/Allwinner/Orangepi-H616/external/cache/sources/arm-trusted-firmware-sunxi-mainline/master/build/sun50i_h616/debug/bl31/psci_main.o
                0x000000004000557c                psci_affinity_info
 .text.psci_arch_setup
                0x00000000400055d4       0x20 /home/lodge/Allwinner/Orangepi-H616/external/cache/sources/arm-trusted-firmware-sunxi-mainline/master/build/sun50i_h616/debug/bl31/psci_setup.o
                0x00000000400055d4                psci_arch_setup
 .text.psci_cpu_off
                0x00000000400055f4       0x30 /home/lodge/Allwinner/Orangepi-H616/external/cache/sources/arm-trusted-firmware-sunxi-mainline/master/build/sun50i_h616/debug/bl31/psci_main.o
                0x00000000400055f4                psci_cpu_off
 .text.psci_cpu_on
                0x0000000040005624       0x5c /home/lodge/Allwinner/Orangepi-H616/external/cache/sources/arm-trusted-firmware-sunxi-mainline/master/build/sun50i_h616/debug/bl31/psci_main.o
                0x0000000040005624                psci_cpu_on
 .text.psci_cpu_on_finish
                0x0000000040005680       0xf4 /home/lodge/Allwinner/Orangepi-H616/external/cache/sources/arm-trusted-firmware-sunxi-mainline/master/build/sun50i_h616/debug/bl31/psci_on.o
                0x0000000040005680                psci_cpu_on_finish
 .text.psci_cpu_on_start
                0x0000000040005774      0x1ec /home/lodge/Allwinner/Orangepi-H616/external/cache/sources/arm-trusted-firmware-sunxi-mainline/master/build/sun50i_h616/debug/bl31/psci_on.o
                0x0000000040005774                psci_cpu_on_start
 .text.psci_cpu_suspend
                0x0000000040005960      0x11c /home/lodge/Allwinner/Orangepi-H616/external/cache/sources/arm-trusted-firmware-sunxi-mainline/master/build/sun50i_h616/debug/bl31/psci_main.o
                0x0000000040005960                psci_cpu_suspend
 .text.psci_cpu_suspend_finish
                0x0000000040005a7c       0xd8 /home/lodge/Allwinner/Orangepi-H616/external/cache/sources/arm-trusted-firmware-sunxi-mainline/master/build/sun50i_h616/debug/bl31/psci_suspend.o
                0x0000000040005a7c                psci_cpu_suspend_finish
 .text.psci_cpu_suspend_start
                0x0000000040005b54      0x1d4 /home/lodge/Allwinner/Orangepi-H616/external/cache/sources/arm-trusted-firmware-sunxi-mainline/master/build/sun50i_h616/debug/bl31/psci_suspend.o
                0x0000000040005b54                psci_cpu_suspend_start
 .text.psci_do_cpu_off
                0x0000000040005d28      0x124 /home/lodge/Allwinner/Orangepi-H616/external/cache/sources/arm-trusted-firmware-sunxi-mainline/master/build/sun50i_h616/debug/bl31/psci_off.o
                0x0000000040005d28                psci_do_cpu_off
 .text.psci_do_pwrdown_sequence
                0x0000000040005e4c        0x4 /home/lodge/Allwinner/Orangepi-H616/external/cache/sources/arm-trusted-firmware-sunxi-mainline/master/build/sun50i_h616/debug/bl31/psci_common.o
                0x0000000040005e4c                psci_do_pwrdown_sequence
 .text.psci_do_state_coordination
                0x0000000040005e50      0x17c /home/lodge/Allwinner/Orangepi-H616/external/cache/sources/arm-trusted-firmware-sunxi-mainline/master/build/sun50i_h616/debug/bl31/psci_common.o
                0x0000000040005e50                psci_do_state_coordination
 .text.psci_features
                0x0000000040005fcc       0x68 /home/lodge/Allwinner/Orangepi-H616/external/cache/sources/arm-trusted-firmware-sunxi-mainline/master/build/sun50i_h616/debug/bl31/psci_main.o
                0x0000000040005fcc                psci_features
 .text.psci_find_max_off_lvl
                0x0000000040006034       0x3c /home/lodge/Allwinner/Orangepi-H616/external/cache/sources/arm-trusted-firmware-sunxi-mainline/master/build/sun50i_h616/debug/bl31/psci_common.o
                0x0000000040006034                psci_find_max_off_lvl
 .text.psci_find_target_suspend_lvl
                0x0000000040006070       0x34 /home/lodge/Allwinner/Orangepi-H616/external/cache/sources/arm-trusted-firmware-sunxi-mainline/master/build/sun50i_h616/debug/bl31/psci_common.o
                0x0000000040006070                psci_find_target_suspend_lvl
 .text.psci_get_parent_pwr_domain_nodes
                0x00000000400060a4       0x48 /home/lodge/Allwinner/Orangepi-H616/external/cache/sources/arm-trusted-firmware-sunxi-mainline/master/build/sun50i_h616/debug/bl31/psci_common.o
                0x00000000400060a4                psci_get_parent_pwr_domain_nodes
 .text.psci_get_target_local_pwr_states
                0x00000000400060ec       0x90 /home/lodge/Allwinner/Orangepi-H616/external/cache/sources/arm-trusted-firmware-sunxi-mainline/master/build/sun50i_h616/debug/bl31/psci_common.o
                0x00000000400060ec                psci_get_target_local_pwr_states
 .text.psci_init_req_local_pwr_states
                0x000000004000617c       0x58 /home/lodge/Allwinner/Orangepi-H616/external/cache/sources/arm-trusted-firmware-sunxi-mainline/master/build/sun50i_h616/debug/bl31/psci_common.o
                0x000000004000617c                psci_init_req_local_pwr_states
 .text.psci_is_last_on_cpu
                0x00000000400061d4       0x8c /home/lodge/Allwinner/Orangepi-H616/external/cache/sources/arm-trusted-firmware-sunxi-mainline/master/build/sun50i_h616/debug/bl31/psci_common.o
                0x00000000400061d4                psci_is_last_on_cpu
 .text.psci_mem_chk_range
                0x0000000040006260       0x54 /home/lodge/Allwinner/Orangepi-H616/external/cache/sources/arm-trusted-firmware-sunxi-mainline/master/build/sun50i_h616/debug/bl31/psci_mem_protect.o
                0x0000000040006260                psci_mem_chk_range
 .text.psci_mem_protect
                0x00000000400062b4       0x80 /home/lodge/Allwinner/Orangepi-H616/external/cache/sources/arm-trusted-firmware-sunxi-mainline/master/build/sun50i_h616/debug/bl31/psci_mem_protect.o
                0x00000000400062b4                psci_mem_protect
 .text.psci_migrate
                0x0000000040006334       0xa4 /home/lodge/Allwinner/Orangepi-H616/external/cache/sources/arm-trusted-firmware-sunxi-mainline/master/build/sun50i_h616/debug/bl31/psci_main.o
                0x0000000040006334                psci_migrate
 .text.psci_migrate_info_type
                0x00000000400063d8       0x18 /home/lodge/Allwinner/Orangepi-H616/external/cache/sources/arm-trusted-firmware-sunxi-mainline/master/build/sun50i_h616/debug/bl31/psci_main.o
                0x00000000400063d8                psci_migrate_info_type
 .text.psci_migrate_info_up_cpu
                0x00000000400063f0       0x28 /home/lodge/Allwinner/Orangepi-H616/external/cache/sources/arm-trusted-firmware-sunxi-mainline/master/build/sun50i_h616/debug/bl31/psci_main.o
                0x00000000400063f0                psci_migrate_info_up_cpu
 .text.psci_node_hw_state
                0x0000000040006418       0x7c /home/lodge/Allwinner/Orangepi-H616/external/cache/sources/arm-trusted-firmware-sunxi-mainline/master/build/sun50i_h616/debug/bl31/psci_main.o
                0x0000000040006418                psci_node_hw_state
 .text.psci_print_power_domain_map
                0x0000000040006494      0x130 /home/lodge/Allwinner/Orangepi-H616/external/cache/sources/arm-trusted-firmware-sunxi-mainline/master/build/sun50i_h616/debug/bl31/psci_common.o
                0x0000000040006494                psci_print_power_domain_map
 .text.psci_query_sys_suspend_pwrstate
                0x00000000400065c4       0x30 /home/lodge/Allwinner/Orangepi-H616/external/cache/sources/arm-trusted-firmware-sunxi-mainline/master/build/sun50i_h616/debug/bl31/psci_common.o
                0x00000000400065c4                psci_query_sys_suspend_pwrstate
 .text.psci_release_pwr_domain_locks
                0x00000000400065f4       0x58 /home/lodge/Allwinner/Orangepi-H616/external/cache/sources/arm-trusted-firmware-sunxi-mainline/master/build/sun50i_h616/debug/bl31/psci_common.o
                0x00000000400065f4                psci_release_pwr_domain_locks
 .text.psci_set_pwr_domains_to_run
                0x000000004000664c       0xa0 /home/lodge/Allwinner/Orangepi-H616/external/cache/sources/arm-trusted-firmware-sunxi-mainline/master/build/sun50i_h616/debug/bl31/psci_common.o
                0x000000004000664c                psci_set_pwr_domains_to_run
 .text.psci_set_req_local_pwr_state
                0x00000000400066ec       0x50 /home/lodge/Allwinner/Orangepi-H616/external/cache/sources/arm-trusted-firmware-sunxi-mainline/master/build/sun50i_h616/debug/bl31/psci_common.o
 .text.psci_setup
                0x000000004000673c      0x3dc /home/lodge/Allwinner/Orangepi-H616/external/cache/sources/arm-trusted-firmware-sunxi-mainline/master/build/sun50i_h616/debug/bl31/psci_setup.o
                0x000000004000673c                psci_setup
 .text.psci_smc_handler
                0x0000000040006b18      0x15c /home/lodge/Allwinner/Orangepi-H616/external/cache/sources/arm-trusted-firmware-sunxi-mainline/master/build/sun50i_h616/debug/bl31/psci_main.o
                0x0000000040006b18                psci_smc_handler
 .text.psci_spd_migrate_info
                0x0000000040006c74       0x4c /home/lodge/Allwinner/Orangepi-H616/external/cache/sources/arm-trusted-firmware-sunxi-mainline/master/build/sun50i_h616/debug/bl31/psci_common.o
                0x0000000040006c74                psci_spd_migrate_info
 .text.psci_system_off
                0x0000000040006cc0       0x5c /home/lodge/Allwinner/Orangepi-H616/external/cache/sources/arm-trusted-firmware-sunxi-mainline/master/build/sun50i_h616/debug/bl31/psci_system_off.o
                0x0000000040006cc0                psci_system_off
 .text.psci_system_reset
                0x0000000040006d1c       0x5c /home/lodge/Allwinner/Orangepi-H616/external/cache/sources/arm-trusted-firmware-sunxi-mainline/master/build/sun50i_h616/debug/bl31/psci_system_off.o
                0x0000000040006d1c                psci_system_reset
 .text.psci_system_reset2
                0x0000000040006d78       0xbc /home/lodge/Allwinner/Orangepi-H616/external/cache/sources/arm-trusted-firmware-sunxi-mainline/master/build/sun50i_h616/debug/bl31/psci_system_off.o
                0x0000000040006d78                psci_system_reset2
 .text.psci_system_suspend
                0x0000000040006e34       0xac /home/lodge/Allwinner/Orangepi-H616/external/cache/sources/arm-trusted-firmware-sunxi-mainline/master/build/sun50i_h616/debug/bl31/psci_main.o
                0x0000000040006e34                psci_system_suspend
 .text.psci_validate_entry_point
                0x0000000040006ee0       0xf4 /home/lodge/Allwinner/Orangepi-H616/external/cache/sources/arm-trusted-firmware-sunxi-mainline/master/build/sun50i_h616/debug/bl31/psci_common.o
                0x0000000040006ee0                psci_validate_entry_point
 .text.psci_validate_mpidr
                0x0000000040006fd4       0x20 /home/lodge/Allwinner/Orangepi-H616/external/cache/sources/arm-trusted-firmware-sunxi-mainline/master/build/sun50i_h616/debug/bl31/psci_common.o
                0x0000000040006fd4                psci_validate_mpidr
 .text.psci_validate_power_state
                0x0000000040006ff4       0x44 /home/lodge/Allwinner/Orangepi-H616/external/cache/sources/arm-trusted-firmware-sunxi-mainline/master/build/sun50i_h616/debug/bl31/psci_common.o
                0x0000000040006ff4                psci_validate_power_state
 .text.psci_validate_suspend_req
                0x0000000040007038       0xa0 /home/lodge/Allwinner/Orangepi-H616/external/cache/sources/arm-trusted-firmware-sunxi-mainline/master/build/sun50i_h616/debug/bl31/psci_common.o
                0x0000000040007038                psci_validate_suspend_req
 .text.psci_warmboot_entrypoint
                0x00000000400070d8       0xdc /home/lodge/Allwinner/Orangepi-H616/external/cache/sources/arm-trusted-firmware-sunxi-mainline/master/build/sun50i_h616/debug/bl31/psci_common.o
                0x00000000400070d8                psci_warmboot_entrypoint
 .text.putchar  0x00000000400071b4       0x2c /home/lodge/Allwinner/Orangepi-H616/external/cache/sources/arm-trusted-firmware-sunxi-mainline/master/build/sun50i_h616/debug/lib/libc.a(putchar.o)
                0x00000000400071b4                putchar
 .text.rsb_assign_runtime_address
                0x00000000400071e0       0x44 /home/lodge/Allwinner/Orangepi-H616/external/cache/sources/arm-trusted-firmware-sunxi-mainline/master/build/sun50i_h616/debug/bl31/sunxi_rsb.o
                0x00000000400071e0                rsb_assign_runtime_address
 .text.rsb_init
                0x0000000040007224       0x58 /home/lodge/Allwinner/Orangepi-H616/external/cache/sources/arm-trusted-firmware-sunxi-mainline/master/build/sun50i_h616/debug/bl31/sunxi_power.o
 .text.rsb_init_controller
                0x000000004000727c       0x20 /home/lodge/Allwinner/Orangepi-H616/external/cache/sources/arm-trusted-firmware-sunxi-mainline/master/build/sun50i_h616/debug/bl31/sunxi_rsb.o
                0x000000004000727c                rsb_init_controller
 .text.rsb_read
                0x000000004000729c       0x68 /home/lodge/Allwinner/Orangepi-H616/external/cache/sources/arm-trusted-firmware-sunxi-mainline/master/build/sun50i_h616/debug/bl31/sunxi_rsb.o
                0x000000004000729c                rsb_read
 .text.rsb_set_bus_speed
                0x0000000040007304       0x38 /home/lodge/Allwinner/Orangepi-H616/external/cache/sources/arm-trusted-firmware-sunxi-mainline/master/build/sun50i_h616/debug/bl31/sunxi_rsb.o
                0x0000000040007304                rsb_set_bus_speed
 .text.rsb_set_device_mode
                0x000000004000733c       0x28 /home/lodge/Allwinner/Orangepi-H616/external/cache/sources/arm-trusted-firmware-sunxi-mainline/master/build/sun50i_h616/debug/bl31/sunxi_rsb.o
                0x000000004000733c                rsb_set_device_mode
 .text.rsb_wait_bit
                0x0000000040007364       0x54 /home/lodge/Allwinner/Orangepi-H616/external/cache/sources/arm-trusted-firmware-sunxi-mainline/master/build/sun50i_h616/debug/bl31/sunxi_rsb.o
 .text.rsb_wait_stat
                0x00000000400073b8       0x58 /home/lodge/Allwinner/Orangepi-H616/external/cache/sources/arm-trusted-firmware-sunxi-mainline/master/build/sun50i_h616/debug/bl31/sunxi_rsb.o
 .text.rsb_write
                0x0000000040007410       0x4c /home/lodge/Allwinner/Orangepi-H616/external/cache/sources/arm-trusted-firmware-sunxi-mainline/master/build/sun50i_h616/debug/bl31/sunxi_rsb.o
                0x0000000040007410                rsb_write
 .text.runtime_svc_init
                0x000000004000745c      0x158 /home/lodge/Allwinner/Orangepi-H616/external/cache/sources/arm-trusted-firmware-sunxi-mainline/master/build/sun50i_h616/debug/bl31/runtime_svc.o
                0x000000004000745c                runtime_svc_init
 .text.setup_mmu_cfg
                0x00000000400075b4      0x108 /home/lodge/Allwinner/Orangepi-H616/external/cache/sources/arm-trusted-firmware-sunxi-mainline/master/build/sun50i_h616/debug/bl31/xlat_tables_arch.o
                0x00000000400075b4                setup_mmu_cfg
 .text.std_svc_setup
                0x00000000400076bc       0x38 /home/lodge/Allwinner/Orangepi-H616/external/cache/sources/arm-trusted-firmware-sunxi-mainline/master/build/sun50i_h616/debug/bl31/std_svc_setup.o
 .text.std_svc_smc_handler
                0x00000000400076f4       0xb8 /home/lodge/Allwinner/Orangepi-H616/external/cache/sources/arm-trusted-firmware-sunxi-mainline/master/build/sun50i_h616/debug/bl31/std_svc_setup.o
 .text.strcmp   0x00000000400077ac       0x2c /home/lodge/Allwinner/Orangepi-H616/external/cache/sources/arm-trusted-firmware-sunxi-mainline/master/build/sun50i_h616/debug/lib/libc.a(strcmp.o)
                0x00000000400077ac                strcmp
 .text.strlen   0x00000000400077d8       0x1c /home/lodge/Allwinner/Orangepi-H616/external/cache/sources/arm-trusted-firmware-sunxi-mainline/master/build/sun50i_h616/debug/lib/libc.a(strlen.o)
                0x00000000400077d8                strlen
 .text.strncmp  0x00000000400077f4       0x38 /home/lodge/Allwinner/Orangepi-H616/external/cache/sources/arm-trusted-firmware-sunxi-mainline/master/build/sun50i_h616/debug/lib/libc.a(strncmp.o)
                0x00000000400077f4                strncmp
 .text.strrchr  0x000000004000782c       0x28 /home/lodge/Allwinner/Orangepi-H616/external/cache/sources/arm-trusted-firmware-sunxi-mainline/master/build/sun50i_h616/debug/lib/libc.a(strrchr.o)
                0x000000004000782c                strrchr
 .text.sunxi_configure_mmu_el3
                0x0000000040007854       0xa8 /home/lodge/Allwinner/Orangepi-H616/external/cache/sources/arm-trusted-firmware-sunxi-mainline/master/build/sun50i_h616/debug/bl31/sunxi_common.o
                0x0000000040007854                sunxi_configure_mmu_el3
 .text.sunxi_cpu_on
                0x00000000400078fc      0x120 /home/lodge/Allwinner/Orangepi-H616/external/cache/sources/arm-trusted-firmware-sunxi-mainline/master/build/sun50i_h616/debug/bl31/sunxi_cpu_ops.o
                0x00000000400078fc                sunxi_cpu_on
 .text.sunxi_cpu_power_off_others
                0x0000000040007a1c       0x90 /home/lodge/Allwinner/Orangepi-H616/external/cache/sources/arm-trusted-firmware-sunxi-mainline/master/build/sun50i_h616/debug/bl31/sunxi_cpu_ops.o
                0x0000000040007a1c                sunxi_cpu_power_off_others
 .text.sunxi_cpu_power_off_self
                0x0000000040007aac       0x30 /home/lodge/Allwinner/Orangepi-H616/external/cache/sources/arm-trusted-firmware-sunxi-mainline/master/build/sun50i_h616/debug/bl31/sunxi_power.o
                0x0000000040007aac                sunxi_cpu_power_off_self
 .text.sunxi_init_platform_r_twi
                0x0000000040007adc      0x17c /home/lodge/Allwinner/Orangepi-H616/external/cache/sources/arm-trusted-firmware-sunxi-mainline/master/build/sun50i_h616/debug/bl31/sunxi_common.o
                0x0000000040007adc                sunxi_init_platform_r_twi
 .text.sunxi_pmic_setup
                0x0000000040007c58       0x98 /home/lodge/Allwinner/Orangepi-H616/external/cache/sources/arm-trusted-firmware-sunxi-mainline/master/build/sun50i_h616/debug/bl31/sunxi_power.o
                0x0000000040007c58                sunxi_pmic_setup
 .text.sunxi_power_down
                0x0000000040007cf0       0x30 /home/lodge/Allwinner/Orangepi-H616/external/cache/sources/arm-trusted-firmware-sunxi-mainline/master/build/sun50i_h616/debug/bl31/sunxi_power.o
                0x0000000040007cf0                sunxi_power_down
 .text.sunxi_prepare_dtb
                0x0000000040007d20       0xe0 /home/lodge/Allwinner/Orangepi-H616/external/cache/sources/arm-trusted-firmware-sunxi-mainline/master/build/sun50i_h616/debug/bl31/prepare_dtb.o
                0x0000000040007d20                sunxi_prepare_dtb
 .text.sunxi_pwr_domain_off
                0x0000000040007e00       0x14 /home/lodge/Allwinner/Orangepi-H616/external/cache/sources/arm-trusted-firmware-sunxi-mainline/master/build/sun50i_h616/debug/bl31/sunxi_native_pm.o
 .text.sunxi_pwr_domain_on
                0x0000000040007e14       0x18 /home/lodge/Allwinner/Orangepi-H616/external/cache/sources/arm-trusted-firmware-sunxi-mainline/master/build/sun50i_h616/debug/bl31/sunxi_native_pm.o
 .text.sunxi_pwr_domain_on_finish
                0x0000000040007e2c       0x14 /home/lodge/Allwinner/Orangepi-H616/external/cache/sources/arm-trusted-firmware-sunxi-mainline/master/build/sun50i_h616/debug/bl31/sunxi_native_pm.o
 .text.sunxi_read_soc_id
                0x0000000040007e40       0x28 /home/lodge/Allwinner/Orangepi-H616/external/cache/sources/arm-trusted-firmware-sunxi-mainline/master/build/sun50i_h616/debug/bl31/sunxi_common.o
                0x0000000040007e40                sunxi_read_soc_id
 .text.sunxi_security_setup
                0x0000000040007e68       0x6c /home/lodge/Allwinner/Orangepi-H616/external/cache/sources/arm-trusted-firmware-sunxi-mainline/master/build/sun50i_h616/debug/bl31/sunxi_security.o
                0x0000000040007e68                sunxi_security_setup
 .text.sunxi_set_native_psci_ops
                0x0000000040007ed4       0x10 /home/lodge/Allwinner/Orangepi-H616/external/cache/sources/arm-trusted-firmware-sunxi-mainline/master/build/sun50i_h616/debug/bl31/sunxi_native_pm.o
                0x0000000040007ed4                sunxi_set_native_psci_ops
 .text.sunxi_system_off
                0x0000000040007ee4       0x1c /home/lodge/Allwinner/Orangepi-H616/external/cache/sources/arm-trusted-firmware-sunxi-mainline/master/build/sun50i_h616/debug/bl31/sunxi_native_pm.o
 .text.sunxi_system_reset
                0x0000000040007f00       0x3c /home/lodge/Allwinner/Orangepi-H616/external/cache/sources/arm-trusted-firmware-sunxi-mainline/master/build/sun50i_h616/debug/bl31/sunxi_native_pm.o
 .text.sunxi_validate_ns_entrypoint
                0x0000000040007f3c       0x14 /home/lodge/Allwinner/Orangepi-H616/external/cache/sources/arm-trusted-firmware-sunxi-mainline/master/build/sun50i_h616/debug/bl31/sunxi_pm.o
                0x0000000040007f3c                sunxi_validate_ns_entrypoint
 .text.tcr_physical_addr_size_bits
                0x0000000040007f50       0x6c /home/lodge/Allwinner/Orangepi-H616/external/cache/sources/arm-trusted-firmware-sunxi-mainline/master/build/sun50i_h616/debug/bl31/xlat_tables_arch.o
                0x0000000040007f50                tcr_physical_addr_size_bits
 .text.tf_log   0x0000000040007fbc       0xc8 /home/lodge/Allwinner/Orangepi-H616/external/cache/sources/arm-trusted-firmware-sunxi-mainline/master/build/sun50i_h616/debug/bl31/tf_log.o
                0x0000000040007fbc                tf_log
 .text.tf_log_newline
                0x0000000040008084       0x60 /home/lodge/Allwinner/Orangepi-H616/external/cache/sources/arm-trusted-firmware-sunxi-mainline/master/build/sun50i_h616/debug/bl31/tf_log.o
                0x0000000040008084                tf_log_newline
 .text.timer_init
                0x00000000400080e4       0x40 /home/lodge/Allwinner/Orangepi-H616/external/cache/sources/arm-trusted-firmware-sunxi-mainline/master/build/sun50i_h616/debug/bl31/delay_timer.o
                0x00000000400080e4                timer_init
 .text.udelay   0x0000000040008124       0xa8 /home/lodge/Allwinner/Orangepi-H616/external/cache/sources/arm-trusted-firmware-sunxi-mainline/master/build/sun50i_h616/debug/bl31/delay_timer.o
                0x0000000040008124                udelay
 .text.unsigned_num_print
                0x00000000400081cc       0xd0 /home/lodge/Allwinner/Orangepi-H616/external/cache/sources/arm-trusted-firmware-sunxi-mainline/master/build/sun50i_h616/debug/lib/libc.a(printf.o)
 .text.vprintf  0x000000004000829c      0x414 /home/lodge/Allwinner/Orangepi-H616/external/cache/sources/arm-trusted-firmware-sunxi-mainline/master/build/sun50i_h616/debug/lib/libc.a(printf.o)
                0x000000004000829c                vprintf
 .text.xlat_arch_current_el
                0x00000000400086b0       0x2c /home/lodge/Allwinner/Orangepi-H616/external/cache/sources/arm-trusted-firmware-sunxi-mainline/master/build/sun50i_h616/debug/bl31/xlat_tables_arch.o
                0x00000000400086b0                xlat_arch_current_el
 .text.xlat_arch_get_max_supported_pa
                0x00000000400086dc       0x44 /home/lodge/Allwinner/Orangepi-H616/external/cache/sources/arm-trusted-firmware-sunxi-mainline/master/build/sun50i_h616/debug/bl31/xlat_tables_arch.o
                0x00000000400086dc                xlat_arch_get_max_supported_pa
 .text.xlat_arch_get_pas
                0x0000000040008720       0x14 /home/lodge/Allwinner/Orangepi-H616/external/cache/sources/arm-trusted-firmware-sunxi-mainline/master/build/sun50i_h616/debug/bl31/xlat_tables_arch.o
                0x0000000040008720                xlat_arch_get_pas
 .text.xlat_arch_regime_get_xn_desc
                0x0000000040008734       0x38 /home/lodge/Allwinner/Orangepi-H616/external/cache/sources/arm-trusted-firmware-sunxi-mainline/master/build/sun50i_h616/debug/bl31/xlat_tables_arch.o
                0x0000000040008734                xlat_arch_regime_get_xn_desc
 .text.xlat_desc
                0x000000004000876c      0x134 /home/lodge/Allwinner/Orangepi-H616/external/cache/sources/arm-trusted-firmware-sunxi-mainline/master/build/sun50i_h616/debug/bl31/xlat_tables_core.o
                0x000000004000876c                xlat_desc
 .text.xlat_get_min_virt_addr_space_size
                0x00000000400088a0       0x1c /home/lodge/Allwinner/Orangepi-H616/external/cache/sources/arm-trusted-firmware-sunxi-mainline/master/build/sun50i_h616/debug/bl31/xlat_tables_arch.o
                0x00000000400088a0                xlat_get_min_virt_addr_space_size
 .text.xlat_mmap_print
                0x00000000400088bc        0x4 /home/lodge/Allwinner/Orangepi-H616/external/cache/sources/arm-trusted-firmware-sunxi-mainline/master/build/sun50i_h616/debug/bl31/xlat_tables_utils.o
                0x00000000400088bc                xlat_mmap_print
 .text.xlat_tables_map_region
                0x00000000400088c0      0x23c /home/lodge/Allwinner/Orangepi-H616/external/cache/sources/arm-trusted-firmware-sunxi-mainline/master/build/sun50i_h616/debug/bl31/xlat_tables_core.o
 .text.xlat_tables_print
                0x0000000040008afc        0x4 /home/lodge/Allwinner/Orangepi-H616/external/cache/sources/arm-trusted-firmware-sunxi-mainline/master/build/sun50i_h616/debug/bl31/xlat_tables_utils.o
                0x0000000040008afc                xlat_tables_print
 *(.vectors)
 *fill*         0x0000000040008b00      0x500 
 .vectors       0x0000000040009000      0x800 /home/lodge/Allwinner/Orangepi-H616/external/cache/sources/arm-trusted-firmware-sunxi-mainline/master/build/sun50i_h616/debug/bl31/runtime_exceptions.o
                0x0000000040009000                sync_exception_sp_el0
                0x0000000040009000                runtime_exceptions
                0x0000000040009080                irq_sp_el0
                0x0000000040009100                fiq_sp_el0
                0x0000000040009180                serror_sp_el0
                0x0000000040009200                sync_exception_sp_elx
                0x0000000040009280                irq_sp_elx
                0x0000000040009300                fiq_sp_elx
                0x0000000040009380                serror_sp_elx
                0x0000000040009400                sync_exception_aarch64
                0x0000000040009480                irq_aarch64
                0x0000000040009500                fiq_aarch64
                0x0000000040009580                serror_aarch64
                0x0000000040009600                sync_exception_aarch32
                0x0000000040009680                irq_aarch32
                0x0000000040009700                fiq_aarch32
                0x0000000040009780                serror_aarch32
                0x000000004000a000                . = ALIGN (0x1000)
 *fill*         0x0000000040009800      0x800 
                0x000000004000a000                __TEXT_END__ = .

.iplt           0x000000004000a000        0x0
 .iplt          0x000000004000a000        0x0 /home/lodge/Allwinner/Orangepi-H616/external/cache/sources/arm-trusted-firmware-sunxi-mainline/master/build/sun50i_h616/debug/bl31/build_message.o

.rodata         0x000000004000a000     0x2000
                0x000000004000a000                __RODATA_START__ = .
 *(SORT_BY_ALIGNMENT(.rodata*))
 .rodata.psci_args.3232
                0x000000004000a000       0x10 /home/lodge/Allwinner/Orangepi-H616/external/cache/sources/arm-trusted-firmware-sunxi-mainline/master/build/sun50i_h616/debug/bl31/bl31_main.o
 .rodata.axp_compatible
                0x000000004000a010        0x8 /home/lodge/Allwinner/Orangepi-H616/external/cache/sources/arm-trusted-firmware-sunxi-mainline/master/build/sun50i_h616/debug/bl31/axp805.o
                0x000000004000a010                axp_compatible
 .rodata.axp_regulators
                0x000000004000a018      0x180 /home/lodge/Allwinner/Orangepi-H616/external/cache/sources/arm-trusted-firmware-sunxi-mainline/master/build/sun50i_h616/debug/bl31/axp805.o
                0x000000004000a018                axp_regulators
 .rodata.psci_state_type_str.3502
                0x000000004000a198       0x18 /home/lodge/Allwinner/Orangepi-H616/external/cache/sources/arm-trusted-firmware-sunxi-mainline/master/build/sun50i_h616/debug/bl31/psci_common.o
 .rodata.sunxi_gic_data
                0x000000004000a1b0       0x30 /home/lodge/Allwinner/Orangepi-H616/external/cache/sources/arm-trusted-firmware-sunxi-mainline/master/build/sun50i_h616/debug/bl31/sunxi_bl31_setup.o
 .rodata.sunxi_native_psci_ops
                0x000000004000a1e0       0xa8 /home/lodge/Allwinner/Orangepi-H616/external/cache/sources/arm-trusted-firmware-sunxi-mainline/master/build/sun50i_h616/debug/bl31/sunxi_native_pm.o
 .rodata.plat_prefix_str
                0x000000004000a288       0x28 /home/lodge/Allwinner/Orangepi-H616/external/cache/sources/arm-trusted-firmware-sunxi-mainline/master/build/sun50i_h616/debug/bl31/plat_log_common.o
 .rodata.sunxi_mmap
                0x000000004000a2b0       0xa0 /home/lodge/Allwinner/Orangepi-H616/external/cache/sources/arm-trusted-firmware-sunxi-mainline/master/build/sun50i_h616/debug/bl31/sunxi_common.o
 .rodata.psci_smc_handler
                0x000000004000a350       0x2c /home/lodge/Allwinner/Orangepi-H616/external/cache/sources/arm-trusted-firmware-sunxi-mainline/master/build/sun50i_h616/debug/bl31/psci_main.o
 .rodata.pa_range_bits_arr
                0x000000004000a37c       0x1c /home/lodge/Allwinner/Orangepi-H616/external/cache/sources/arm-trusted-firmware-sunxi-mainline/master/build/sun50i_h616/debug/bl31/xlat_tables_arch.o
 .rodata.fdt_next_tag
                0x000000004000a398        0x9 /home/lodge/Allwinner/Orangepi-H616/external/cache/sources/arm-trusted-firmware-sunxi-mainline/master/build/sun50i_h616/debug/lib/libfdt.a(fdt.o)
 *fill*         0x000000004000a3a1        0x3 
 .rodata.vprintf
                0x000000004000a3a4       0x2e /home/lodge/Allwinner/Orangepi-H616/external/cache/sources/arm-trusted-firmware-sunxi-mainline/master/build/sun50i_h616/debug/lib/libc.a(printf.o)
 .rodata.build_message
                0x000000004000a3d2       0x1e /home/lodge/Allwinner/Orangepi-H616/external/cache/sources/arm-trusted-firmware-sunxi-mainline/master/build/sun50i_h616/debug/bl31/build_message.o
                0x000000004000a3d2                build_message
 .rodata.version_string
                0x000000004000a3f0        0xd /home/lodge/Allwinner/Orangepi-H616/external/cache/sources/arm-trusted-firmware-sunxi-mainline/master/build/sun50i_h616/debug/bl31/build_message.o
                0x000000004000a3f0                version_string
 .rodata.cm_get_context.str1.1
                0x000000004000a3fd       0x19 /home/lodge/Allwinner/Orangepi-H616/external/cache/sources/arm-trusted-firmware-sunxi-mainline/master/build/sun50i_h616/debug/bl31/bl31_context_mgmt.o
 .rodata.get_arm_std_svc_args.str1.1
                0x000000004000a416       0x11 /home/lodge/Allwinner/Orangepi-H616/external/cache/sources/arm-trusted-firmware-sunxi-mainline/master/build/sun50i_h616/debug/bl31/bl31_main.o
 .rodata.bl31_prepare_next_image_entry.str1.1
                0x000000004000a427       0x89 /home/lodge/Allwinner/Orangepi-H616/external/cache/sources/arm-trusted-firmware-sunxi-mainline/master/build/sun50i_h616/debug/bl31/bl31_main.o
 .rodata.bl31_main.str1.1
                0x000000004000a4b0       0x6e /home/lodge/Allwinner/Orangepi-H616/external/cache/sources/arm-trusted-firmware-sunxi-mainline/master/build/sun50i_h616/debug/bl31/bl31_main.o
 .rodata.get_scr_el3_from_routing_model.str1.1
                0x000000004000a51e       0x16 /home/lodge/Allwinner/Orangepi-H616/external/cache/sources/arm-trusted-firmware-sunxi-mainline/master/build/sun50i_h616/debug/bl31/interrupt_mgmt.o
 .rodata.fdt_add_reserved_memory.str1.1
                0x000000004000a534       0x3e /home/lodge/Allwinner/Orangepi-H616/external/cache/sources/arm-trusted-firmware-sunxi-mainline/master/build/sun50i_h616/debug/bl31/fdt_fixup.o
                                         0x4e (size before relaxing)
 .rodata.handle_runtime_svc.str1.1
                0x000000004000a572       0x15 /home/lodge/Allwinner/Orangepi-H616/external/cache/sources/arm-trusted-firmware-sunxi-mainline/master/build/sun50i_h616/debug/bl31/runtime_svc.o
 .rodata.runtime_svc_init.str1.1
                0x000000004000a587       0x50 /home/lodge/Allwinner/Orangepi-H616/external/cache/sources/arm-trusted-firmware-sunxi-mainline/master/build/sun50i_h616/debug/bl31/runtime_svc.o
 .rodata.str1.1
                0x000000004000a5d7       0x6a /home/lodge/Allwinner/Orangepi-H616/external/cache/sources/arm-trusted-firmware-sunxi-mainline/master/build/sun50i_h616/debug/bl31/axp805.o
 .rodata.axp_chip_id
                0x000000004000a641        0x1 /home/lodge/Allwinner/Orangepi-H616/external/cache/sources/arm-trusted-firmware-sunxi-mainline/master/build/sun50i_h616/debug/bl31/axp805.o
                0x000000004000a641                axp_chip_id
 .rodata.axp_check_id.str1.1
                0x000000004000a642       0x20 /home/lodge/Allwinner/Orangepi-H616/external/cache/sources/arm-trusted-firmware-sunxi-mainline/master/build/sun50i_h616/debug/bl31/common.o
 .rodata.axp_setup_regulators.str1.1
                0x000000004000a662      0x14b /home/lodge/Allwinner/Orangepi-H616/external/cache/sources/arm-trusted-firmware-sunxi-mainline/master/build/sun50i_h616/debug/bl31/common.o
                                        0x14e (size before relaxing)
 .rodata.rsb_wait_bit.str1.1
                0x000000004000a7ad       0x10 /home/lodge/Allwinner/Orangepi-H616/external/cache/sources/arm-trusted-firmware-sunxi-mainline/master/build/sun50i_h616/debug/bl31/sunxi_rsb.o
 .rodata.rsb_wait_stat.str1.1
                0x000000004000a7bd        0xb /home/lodge/Allwinner/Orangepi-H616/external/cache/sources/arm-trusted-firmware-sunxi-mainline/master/build/sun50i_h616/debug/bl31/sunxi_rsb.o
 .rodata.rsb_init_controller.str1.1
                0x000000004000a7c8       0x16 /home/lodge/Allwinner/Orangepi-H616/external/cache/sources/arm-trusted-firmware-sunxi-mainline/master/build/sun50i_h616/debug/bl31/sunxi_rsb.o
 .rodata.rsb_read.str1.1
                0x000000004000a7de       0x12 /home/lodge/Allwinner/Orangepi-H616/external/cache/sources/arm-trusted-firmware-sunxi-mainline/master/build/sun50i_h616/debug/bl31/sunxi_rsb.o
 .rodata.rsb_write.str1.1
                0x000000004000a7f0       0x13 /home/lodge/Allwinner/Orangepi-H616/external/cache/sources/arm-trusted-firmware-sunxi-mainline/master/build/sun50i_h616/debug/bl31/sunxi_rsb.o
 .rodata.rsb_set_device_mode.str1.1
                0x000000004000a803       0x17 /home/lodge/Allwinner/Orangepi-H616/external/cache/sources/arm-trusted-firmware-sunxi-mainline/master/build/sun50i_h616/debug/bl31/sunxi_rsb.o
 .rodata.rsb_assign_runtime_address.str1.1
                0x000000004000a81a       0x1a /home/lodge/Allwinner/Orangepi-H616/external/cache/sources/arm-trusted-firmware-sunxi-mainline/master/build/sun50i_h616/debug/bl31/sunxi_rsb.o
 .rodata.gicv2_secure_spis_configure_props.str1.1
                0x000000004000a834       0x23 /home/lodge/Allwinner/Orangepi-H616/external/cache/sources/arm-trusted-firmware-sunxi-mainline/master/build/sun50i_h616/debug/bl31/gicv2_helpers.o
 .rodata.gicv2_cpuif_enable.str1.1
                0x000000004000a857       0x20 /home/lodge/Allwinner/Orangepi-H616/external/cache/sources/arm-trusted-firmware-sunxi-mainline/master/build/sun50i_h616/debug/bl31/gicv2_main.o
 .rodata.gicv2_driver_init.str1.1
                0x000000004000a877       0x1f /home/lodge/Allwinner/Orangepi-H616/external/cache/sources/arm-trusted-firmware-sunxi-mainline/master/build/sun50i_h616/debug/bl31/gicv2_main.o
 .rodata.udelay.str1.1
                0x000000004000a896       0x22 /home/lodge/Allwinner/Orangepi-H616/external/cache/sources/arm-trusted-firmware-sunxi-mainline/master/build/sun50i_h616/debug/bl31/delay_timer.o
 .rodata.errata_print_msg.str1.1
                0x000000004000a8b8       0x7d /home/lodge/Allwinner/Orangepi-H616/external/cache/sources/arm-trusted-firmware-sunxi-mainline/master/build/sun50i_h616/debug/bl31/errata_report.o
 .rodata.cm_setup_context.str1.1
                0x000000004000a935       0x4a /home/lodge/Allwinner/Orangepi-H616/external/cache/sources/arm-trusted-firmware-sunxi-mainline/master/build/sun50i_h616/debug/bl31/context_mgmt.o
 .rodata.cm_set_next_eret_context.str1.1
                0x000000004000a97f       0x27 /home/lodge/Allwinner/Orangepi-H616/external/cache/sources/arm-trusted-firmware-sunxi-mainline/master/build/sun50i_h616/debug/bl31/context_mgmt.o
 .rodata.bakery_lock_get.str1.1
                0x000000004000a9a6       0x28 /home/lodge/Allwinner/Orangepi-H616/external/cache/sources/arm-trusted-firmware-sunxi-mainline/master/build/sun50i_h616/debug/bl31/bakery_lock_coherent.o
 .rodata.psci_set_req_local_pwr_state.str1.1
                0x000000004000a9ce       0x17 /home/lodge/Allwinner/Orangepi-H616/external/cache/sources/arm-trusted-firmware-sunxi-mainline/master/build/sun50i_h616/debug/bl31/psci_common.o
 .rodata.psci_warmboot_entrypoint.str1.1
                0x000000004000a9e5       0x22 /home/lodge/Allwinner/Orangepi-H616/external/cache/sources/arm-trusted-firmware-sunxi-mainline/master/build/sun50i_h616/debug/bl31/psci_common.o
 .rodata.psci_print_power_domain_map.str1.1
                0x000000004000aa07       0x91 /home/lodge/Allwinner/Orangepi-H616/external/cache/sources/arm-trusted-firmware-sunxi-mainline/master/build/sun50i_h616/debug/bl31/psci_common.o
 .rodata.str1.1
                0x000000004000aa98        0xe /home/lodge/Allwinner/Orangepi-H616/external/cache/sources/arm-trusted-firmware-sunxi-mainline/master/build/sun50i_h616/debug/bl31/psci_common.o
                                         0x11 (size before relaxing)
 .rodata.psci_cpu_suspend.str1.1
                0x000000004000aaa6       0x48 /home/lodge/Allwinner/Orangepi-H616/external/cache/sources/arm-trusted-firmware-sunxi-mainline/master/build/sun50i_h616/debug/bl31/psci_main.o
 .rodata.psci_smc_handler.str1.1
                0x000000004000aaee       0x20 /home/lodge/Allwinner/Orangepi-H616/external/cache/sources/arm-trusted-firmware-sunxi-mainline/master/build/sun50i_h616/debug/bl31/psci_main.o
 .rodata.psci_mem_protect.str1.1
                0x000000004000ab0e       0x1c /home/lodge/Allwinner/Orangepi-H616/external/cache/sources/arm-trusted-firmware-sunxi-mainline/master/build/sun50i_h616/debug/bl31/psci_mem_protect.o
 .rodata.psci_do_cpu_off.str1.1
                0x000000004000ab2a       0x14 /home/lodge/Allwinner/Orangepi-H616/external/cache/sources/arm-trusted-firmware-sunxi-mainline/master/build/sun50i_h616/debug/bl31/psci_off.o
 .rodata.psci_cpu_on_start.str1.1
                0x000000004000ab3e       0x13 /home/lodge/Allwinner/Orangepi-H616/external/cache/sources/arm-trusted-firmware-sunxi-mainline/master/build/sun50i_h616/debug/bl31/psci_on.o
 .rodata.psci_setup.str1.1
                0x000000004000ab51       0x16 /home/lodge/Allwinner/Orangepi-H616/external/cache/sources/arm-trusted-firmware-sunxi-mainline/master/build/sun50i_h616/debug/bl31/psci_setup.o
 .rodata.psci_cpu_suspend_start.str1.1
                0x000000004000ab67       0x18 /home/lodge/Allwinner/Orangepi-H616/external/cache/sources/arm-trusted-firmware-sunxi-mainline/master/build/sun50i_h616/debug/bl31/psci_suspend.o
 .rodata.psci_system_off.str1.1
                0x000000004000ab7f       0x1b /home/lodge/Allwinner/Orangepi-H616/external/cache/sources/arm-trusted-firmware-sunxi-mainline/master/build/sun50i_h616/debug/bl31/psci_system_off.o
 .rodata.bl31_platform_setup.str1.1
                0x000000004000ab9a       0xaf /home/lodge/Allwinner/Orangepi-H616/external/cache/sources/arm-trusted-firmware-sunxi-mainline/master/build/sun50i_h616/debug/bl31/sunxi_bl31_setup.o
 .rodata.bl31_plat_get_next_image_ep_info.str1.1
                0x000000004000ac49       0x29 /home/lodge/Allwinner/Orangepi-H616/external/cache/sources/arm-trusted-firmware-sunxi-mainline/master/build/sun50i_h616/debug/bl31/sunxi_bl31_setup.o
 .rodata.sunxi_system_reset.str1.1
                0x000000004000ac72       0x1c /home/lodge/Allwinner/Orangepi-H616/external/cache/sources/arm-trusted-firmware-sunxi-mainline/master/build/sun50i_h616/debug/bl31/sunxi_native_pm.o
 .rodata.plat_setup_psci_ops.str1.1
                0x000000004000ac8e       0x40 /home/lodge/Allwinner/Orangepi-H616/external/cache/sources/arm-trusted-firmware-sunxi-mainline/master/build/sun50i_h616/debug/bl31/sunxi_pm.o
 .rodata.sunxi_security_setup.str1.1
                0x000000004000acce       0x1d /home/lodge/Allwinner/Orangepi-H616/external/cache/sources/arm-trusted-firmware-sunxi-mainline/master/build/sun50i_h616/debug/bl31/sunxi_security.o
 .rodata.plat_power_domain_tree_desc
                0x000000004000aceb        0x3 /home/lodge/Allwinner/Orangepi-H616/external/cache/sources/arm-trusted-firmware-sunxi-mainline/master/build/sun50i_h616/debug/bl31/sunxi_topology.o
 .rodata.sunxi_prepare_dtb.str1.1
                0x000000004000acee       0xbb /home/lodge/Allwinner/Orangepi-H616/external/cache/sources/arm-trusted-firmware-sunxi-mainline/master/build/sun50i_h616/debug/bl31/prepare_dtb.o
 .rodata.sunxi_pmic_setup.str1.1
                0x000000004000ada9       0x59 /home/lodge/Allwinner/Orangepi-H616/external/cache/sources/arm-trusted-firmware-sunxi-mainline/master/build/sun50i_h616/debug/bl31/sunxi_power.o
 .rodata.plat_get_target_pwr_state.str1.1
                0x000000004000ae02       0x1f /home/lodge/Allwinner/Orangepi-H616/external/cache/sources/arm-trusted-firmware-sunxi-mainline/master/build/sun50i_h616/debug/bl31/plat_psci_common.o
 .rodata.arm_arch_svc_smc_handler.str1.1
                0x000000004000ae21       0x35 /home/lodge/Allwinner/Orangepi-H616/external/cache/sources/arm-trusted-firmware-sunxi-mainline/master/build/sun50i_h616/debug/bl31/arm_arch_svc_setup.o
 .rodata.str1.1
                0x000000004000ae56        0xd /home/lodge/Allwinner/Orangepi-H616/external/cache/sources/arm-trusted-firmware-sunxi-mainline/master/build/sun50i_h616/debug/bl31/arm_arch_svc_setup.o
 .rodata.std_svc_setup.str1.1
                0x000000004000ae63       0x21 /home/lodge/Allwinner/Orangepi-H616/external/cache/sources/arm-trusted-firmware-sunxi-mainline/master/build/sun50i_h616/debug/bl31/std_svc_setup.o
 .rodata.str1.1
                0x000000004000ae84        0x8 /home/lodge/Allwinner/Orangepi-H616/external/cache/sources/arm-trusted-firmware-sunxi-mainline/master/build/sun50i_h616/debug/bl31/std_svc_setup.o
 .rodata.print_entry_point_info.str1.1
                0x000000004000ae8c       0x2c /home/lodge/Allwinner/Orangepi-H616/external/cache/sources/arm-trusted-firmware-sunxi-mainline/master/build/sun50i_h616/debug/bl31/bl_common.o
 .rodata.tf_log.str1.1
                0x000000004000aeb8       0x10 /home/lodge/Allwinner/Orangepi-H616/external/cache/sources/arm-trusted-firmware-sunxi-mainline/master/build/sun50i_h616/debug/bl31/tf_log.o
 .rodata.console_unregister.str1.1
                0x000000004000aec8       0x20 /home/lodge/Allwinner/Orangepi-H616/external/cache/sources/arm-trusted-firmware-sunxi-mainline/master/build/sun50i_h616/debug/bl31/multi_console.o
 .rodata.str1.1
                0x000000004000aee8       0x32 /home/lodge/Allwinner/Orangepi-H616/external/cache/sources/arm-trusted-firmware-sunxi-mainline/master/build/sun50i_h616/debug/bl31/plat_log_common.o
 .rodata.plat_default_ea_handler.str1.1
                0x000000004000af1a       0x68 /home/lodge/Allwinner/Orangepi-H616/external/cache/sources/arm-trusted-firmware-sunxi-mainline/master/build/sun50i_h616/debug/bl31/plat_common.o
                                         0x6a (size before relaxing)
 .rodata.xlat_arch_get_max_supported_granule_size.str1.1
                0x000000004000af82       0x2e /home/lodge/Allwinner/Orangepi-H616/external/cache/sources/arm-trusted-firmware-sunxi-mainline/master/build/sun50i_h616/debug/bl31/xlat_tables_arch.o
 .rodata.mmap_add_alloc_va.str1.1
                0x000000004000afb0       0x29 /home/lodge/Allwinner/Orangepi-H616/external/cache/sources/arm-trusted-firmware-sunxi-mainline/master/build/sun50i_h616/debug/bl31/xlat_tables_context.o
 .rodata.xlat_desc.str1.1
                0x000000004000afd9       0x26 /home/lodge/Allwinner/Orangepi-H616/external/cache/sources/arm-trusted-firmware-sunxi-mainline/master/build/sun50i_h616/debug/bl31/xlat_tables_core.o
 .rodata.mmap_add_region_ctx.str1.1
                0x000000004000afff       0x2b /home/lodge/Allwinner/Orangepi-H616/external/cache/sources/arm-trusted-firmware-sunxi-mainline/master/build/sun50i_h616/debug/bl31/xlat_tables_core.o
 .rodata.init_xlat_tables_ctx.str1.1
                0x000000004000b02a       0x4f /home/lodge/Allwinner/Orangepi-H616/external/cache/sources/arm-trusted-firmware-sunxi-mainline/master/build/sun50i_h616/debug/bl31/xlat_tables_core.o
 .rodata.sunxi_init_platform_r_twi.str1.1
                0x000000004000b079       0x30 /home/lodge/Allwinner/Orangepi-H616/external/cache/sources/arm-trusted-firmware-sunxi-mainline/master/build/sun50i_h616/debug/bl31/sunxi_common.o
 .rodata.gic_reg_name
                0x000000004000b0a9       0x92 /home/lodge/Allwinner/Orangepi-H616/external/cache/sources/arm-trusted-firmware-sunxi-mainline/master/build/sun50i_h616/debug/bl31/crash_reporting.o
 .rodata.crash_prints
                0x000000004000b13b      0x2b9 /home/lodge/Allwinner/Orangepi-H616/external/cache/sources/arm-trusted-firmware-sunxi-mainline/master/build/sun50i_h616/debug/bl31/crash_reporting.o
 .rodata.str1.1
                0x000000004000b3f4       0x1b /home/lodge/Allwinner/Orangepi-H616/external/cache/sources/arm-trusted-firmware-sunxi-mainline/master/build/sun50i_h616/debug/bl31/ea_delegate.o
 .rodata        0x000000004000b40f       0x5e /home/lodge/Allwinner/Orangepi-H616/external/cache/sources/arm-trusted-firmware-sunxi-mainline/master/build/sun50i_h616/debug/bl31/cortex_a53.o
 .rodata.cortex_a53_regs
                0x000000004000b46d       0x36 /home/lodge/Allwinner/Orangepi-H616/external/cache/sources/arm-trusted-firmware-sunxi-mainline/master/build/sun50i_h616/debug/bl31/cortex_a53.o
 .rodata.str1.1
                0x000000004000b4a3       0x1f /home/lodge/Allwinner/Orangepi-H616/external/cache/sources/arm-trusted-firmware-sunxi-mainline/master/build/sun50i_h616/debug/bl31/cpu_helpers.o
 .rodata.str1.1
                0x000000004000b4c2       0x22 /home/lodge/Allwinner/Orangepi-H616/external/cache/sources/arm-trusted-firmware-sunxi-mainline/master/build/sun50i_h616/debug/bl31/context.o
 .rodata.assert_str
                0x000000004000b4e4       0x15 /home/lodge/Allwinner/Orangepi-H616/external/cache/sources/arm-trusted-firmware-sunxi-mainline/master/build/sun50i_h616/debug/bl31/debug.o
 .rodata.panic_str
                0x000000004000b4f9       0x11 /home/lodge/Allwinner/Orangepi-H616/external/cache/sources/arm-trusted-firmware-sunxi-mainline/master/build/sun50i_h616/debug/bl31/debug.o
 .rodata.str1.1
                0x000000004000b50a       0x1b /home/lodge/Allwinner/Orangepi-H616/external/cache/sources/arm-trusted-firmware-sunxi-mainline/master/build/sun50i_h616/debug/bl31/misc_helpers.o
 .rodata.str1.1
                0x000000004000b525       0x28 /home/lodge/Allwinner/Orangepi-H616/external/cache/sources/arm-trusted-firmware-sunxi-mainline/master/build/sun50i_h616/debug/bl31/16550_console.o
 .rodata.str1.1
                0x000000004000b54d       0x28 /home/lodge/Allwinner/Orangepi-H616/external/cache/sources/arm-trusted-firmware-sunxi-mainline/master/build/sun50i_h616/debug/bl31/enable_mmu.o
 .rodata.fdt_address_cells.str1.1
                0x000000004000b575        0xf /home/lodge/Allwinner/Orangepi-H616/external/cache/sources/arm-trusted-firmware-sunxi-mainline/master/build/sun50i_h616/debug/lib/libfdt.a(fdt_addresses.o)
 .rodata.fdt_size_cells.str1.1
                0x000000004000b575        0xc /home/lodge/Allwinner/Orangepi-H616/external/cache/sources/arm-trusted-firmware-sunxi-mainline/master/build/sun50i_h616/debug/lib/libfdt.a(fdt_addresses.o)
 .rodata.fdt_get_alias_namelen.str1.1
                0x000000004000b575        0x9 /home/lodge/Allwinner/Orangepi-H616/external/cache/sources/arm-trusted-firmware-sunxi-mainline/master/build/sun50i_h616/debug/lib/libfdt.a(fdt_ro.o)
 .rodata.fdt_node_check_compatible.str1.1
                0x000000004000b57e        0xb /home/lodge/Allwinner/Orangepi-H616/external/cache/sources/arm-trusted-firmware-sunxi-mainline/master/build/sun50i_h616/debug/lib/libfdt.a(fdt_ro.o)
 .rodata.__assert.str1.1
                0x000000004000b589        0xf /home/lodge/Allwinner/Orangepi-H616/external/cache/sources/arm-trusted-firmware-sunxi-mainline/master/build/sun50i_h616/debug/lib/libc.a(assert.o)
 .rodata.vprintf.str1.1
                0x000000004000b598       0x15 /home/lodge/Allwinner/Orangepi-H616/external/cache/sources/arm-trusted-firmware-sunxi-mainline/master/build/sun50i_h616/debug/lib/libc.a(printf.o)
                0x000000004000b5b0                . = ALIGN (0x8)
 *fill*         0x000000004000b5ad        0x3 
                0x000000004000b5b0                __RT_SVC_DESCS_START__ = .
 *(rt_svc_descs)
 rt_svc_descs   0x000000004000b5b0       0x20 /home/lodge/Allwinner/Orangepi-H616/external/cache/sources/arm-trusted-firmware-sunxi-mainline/master/build/sun50i_h616/debug/bl31/arm_arch_svc_setup.o
 rt_svc_descs   0x000000004000b5d0       0x20 /home/lodge/Allwinner/Orangepi-H616/external/cache/sources/arm-trusted-firmware-sunxi-mainline/master/build/sun50i_h616/debug/bl31/std_svc_setup.o
                0x000000004000b5f0                __RT_SVC_DESCS_END__ = .
                0x000000004000b5f0                . = ALIGN (0x8)
                0x000000004000b5f0                __FCONF_POPULATOR_START__ = .
 *(.fconf_populator)
                0x000000004000b5f0                __FCONF_POPULATOR_END__ = .
                0x000000004000b5f0                . = ALIGN (0x8)
                0x000000004000b5f0                __PMF_SVC_DESCS_START__ = .
 *(pmf_svc_descs)
                0x000000004000b5f0                __PMF_SVC_DESCS_END__ = .
                0x000000004000b5f0                . = ALIGN (0x8)
                0x000000004000b5f0                __PARSER_LIB_DESCS_START__ = .
 *(.img_parser_lib_descs)
                0x000000004000b5f0                __PARSER_LIB_DESCS_END__ = .
                0x000000004000b5f0                . = ALIGN (0x8)
                0x000000004000b5f0                __CPU_OPS_START__ = .
 *(cpu_ops)
 cpu_ops        0x000000004000b5f0       0x60 /home/lodge/Allwinner/Orangepi-H616/external/cache/sources/arm-trusted-firmware-sunxi-mainline/master/build/sun50i_h616/debug/bl31/cortex_a53.o
                0x000000004000b650                __CPU_OPS_END__ = .
                0x000000004000b650                . = ALIGN (0x8)
                0x000000004000b650                __GOT_START__ = .
 *(.got)
                0x000000004000b650                __GOT_END__ = .
                0x000000004000b650                . = ALIGN (0x8)
                0x000000004000b650                __pubsub_psci_cpu_on_finish_start = .
 *(__pubsub_psci_cpu_on_finish)
                0x000000004000b650                __pubsub_psci_cpu_on_finish_end = .
                0x000000004000b650                __pubsub_psci_suspend_pwrdown_start_start = .
 *(__pubsub_psci_suspend_pwrdown_start)
                0x000000004000b650                __pubsub_psci_suspend_pwrdown_start_end = .
                0x000000004000b650                __pubsub_psci_suspend_pwrdown_finish_start = .
 *(__pubsub_psci_suspend_pwrdown_finish)
                0x000000004000b650                __pubsub_psci_suspend_pwrdown_finish_end = .
                0x000000004000b650                __pubsub_cm_entering_secure_world_start = .
 *(__pubsub_cm_entering_secure_world)
                0x000000004000b650                __pubsub_cm_entering_secure_world_end = .
                0x000000004000b650                __pubsub_cm_exited_secure_world_start = .
 *(__pubsub_cm_exited_secure_world)
                0x000000004000b650                __pubsub_cm_exited_secure_world_end = .
                0x000000004000b650                __pubsub_cm_entering_normal_world_start = .
 *(__pubsub_cm_entering_normal_world)
                0x000000004000b650                __pubsub_cm_entering_normal_world_end = .
                0x000000004000b650                __pubsub_cm_exited_normal_world_start = .
 *(__pubsub_cm_exited_normal_world)
                0x000000004000b650                __pubsub_cm_exited_normal_world_end = .
                0x000000004000c000                . = ALIGN (0x1000)
 *fill*         0x000000004000b650      0x9b0 
                0x000000004000c000                __RODATA_END__ = .
                0x0000000000000001                ASSERT ((__CPU_OPS_END__ > __CPU_OPS_START__), cpu_ops not defined for this platform.)
                0x000000004000c000                __RW_START__ = .

.data           0x000000004000c000       0x71
                0x000000004000c000                __DATA_START__ = .
 *(SORT_BY_ALIGNMENT(.data*))
 .data.tf_xlat_ctx
                0x000000004000c000       0x60 /home/lodge/Allwinner/Orangepi-H616/external/cache/sources/arm-trusted-firmware-sunxi-mainline/master/build/sun50i_h616/debug/bl31/xlat_tables_context.o
 .data.next_image_type
                0x000000004000c060        0x4 /home/lodge/Allwinner/Orangepi-H616/external/cache/sources/arm-trusted-firmware-sunxi-mainline/master/build/sun50i_h616/debug/bl31/bl31_main.o
 .data.max_log_level
                0x000000004000c064        0x4 /home/lodge/Allwinner/Orangepi-H616/external/cache/sources/arm-trusted-firmware-sunxi-mainline/master/build/sun50i_h616/debug/bl31/tf_log.o
 .data          0x000000004000c068        0x8 /home/lodge/Allwinner/Orangepi-H616/external/cache/sources/arm-trusted-firmware-sunxi-mainline/master/build/sun50i_h616/debug/bl31/cortex_a53.o
 .data.console_state
                0x000000004000c070        0x1 /home/lodge/Allwinner/Orangepi-H616/external/cache/sources/arm-trusted-firmware-sunxi-mainline/master/build/sun50i_h616/debug/bl31/multi_console.o
                0x000000004000c070                console_state
                0x000000004000c071                __DATA_END__ = .

.igot.plt       0x000000004000c078        0x0
 .igot.plt      0x000000004000c078        0x0 /home/lodge/Allwinner/Orangepi-H616/external/cache/sources/arm-trusted-firmware-sunxi-mainline/master/build/sun50i_h616/debug/bl31/build_message.o

.rela.dyn       0x000000004000c078        0x0
                0x000000004000c078                __RELA_START__ = .
 *(.rela*)
 .rela.iplt     0x000000004000c078        0x0 /home/lodge/Allwinner/Orangepi-H616/external/cache/sources/arm-trusted-firmware-sunxi-mainline/master/build/sun50i_h616/debug/bl31/build_message.o
 .rela.text.runtime_svc_init
                0x000000004000c078        0x0 /home/lodge/Allwinner/Orangepi-H616/external/cache/sources/arm-trusted-firmware-sunxi-mainline/master/build/sun50i_h616/debug/bl31/build_message.o
 .rela.text.cm_el1_sysregs_context_restore
                0x000000004000c078        0x0 /home/lodge/Allwinner/Orangepi-H616/external/cache/sources/arm-trusted-firmware-sunxi-mainline/master/build/sun50i_h616/debug/bl31/build_message.o
 .rela.text.psci_cpu_on_finish
                0x000000004000c078        0x0 /home/lodge/Allwinner/Orangepi-H616/external/cache/sources/arm-trusted-firmware-sunxi-mainline/master/build/sun50i_h616/debug/bl31/build_message.o
 .rela.text.psci_cpu_suspend_start
                0x000000004000c078        0x0 /home/lodge/Allwinner/Orangepi-H616/external/cache/sources/arm-trusted-firmware-sunxi-mainline/master/build/sun50i_h616/debug/bl31/build_message.o
 .rela.text.psci_cpu_suspend_finish
                0x000000004000c078        0x0 /home/lodge/Allwinner/Orangepi-H616/external/cache/sources/arm-trusted-firmware-sunxi-mainline/master/build/sun50i_h616/debug/bl31/build_message.o
 .rela.text.console_register
                0x000000004000c078        0x0 /home/lodge/Allwinner/Orangepi-H616/external/cache/sources/arm-trusted-firmware-sunxi-mainline/master/build/sun50i_h616/debug/bl31/build_message.o
 .rela.text.sunxi_configure_mmu_el3
                0x000000004000c078        0x0 /home/lodge/Allwinner/Orangepi-H616/external/cache/sources/arm-trusted-firmware-sunxi-mainline/master/build/sun50i_h616/debug/bl31/build_message.o
 .rela.text.asm.bl31_entrypoint
                0x000000004000c078        0x0 /home/lodge/Allwinner/Orangepi-H616/external/cache/sources/arm-trusted-firmware-sunxi-mainline/master/build/sun50i_h616/debug/bl31/build_message.o
 .rela.text.asm.smc_handler
                0x000000004000c078        0x0 /home/lodge/Allwinner/Orangepi-H616/external/cache/sources/arm-trusted-firmware-sunxi-mainline/master/build/sun50i_h616/debug/bl31/build_message.o
 .rela.text.asm.get_cpu_ops_ptr
                0x000000004000c078        0x0 /home/lodge/Allwinner/Orangepi-H616/external/cache/sources/arm-trusted-firmware-sunxi-mainline/master/build/sun50i_h616/debug/bl31/build_message.o
                0x000000004000c078                __RELA_END__ = .

stacks          0x000000004000c080     0x1000
                0x000000004000c080                __STACKS_START__ = .
 *(tzfw_normal_stacks)
 tzfw_normal_stacks
                0x000000004000c080     0x1000 /home/lodge/Allwinner/Orangepi-H616/external/cache/sources/arm-trusted-firmware-sunxi-mainline/master/build/sun50i_h616/debug/bl31/platform_mp_stack.o
                0x000000004000d080                __STACKS_END__ = .

.bss            0x000000004000d080      0xf20
                0x000000004000d080                __BSS_START__ = .
 *(SORT_BY_ALIGNMENT(.bss*))
 .bss.percpu_data
                0x000000004000d080      0x200 /home/lodge/Allwinner/Orangepi-H616/external/cache/sources/arm-trusted-firmware-sunxi-mainline/master/build/sun50i_h616/debug/bl31/cpu_data_array.o
                0x000000004000d080                percpu_data
 .bss.psci_ns_context
                0x000000004000d280      0x900 /home/lodge/Allwinner/Orangepi-H616/external/cache/sources/arm-trusted-firmware-sunxi-mainline/master/build/sun50i_h616/debug/bl31/psci_setup.o
 .bss.bl32_init
                0x000000004000db80        0x8 /home/lodge/Allwinner/Orangepi-H616/external/cache/sources/arm-trusted-firmware-sunxi-mainline/master/build/sun50i_h616/debug/bl31/bl31_main.o
 .bss.intr_type_descs
                0x000000004000db88       0x60 /home/lodge/Allwinner/Orangepi-H616/external/cache/sources/arm-trusted-firmware-sunxi-mainline/master/build/sun50i_h616/debug/bl31/interrupt_mgmt.o
 .bss.driver_data
                0x000000004000dbe8        0x8 /home/lodge/Allwinner/Orangepi-H616/external/cache/sources/arm-trusted-firmware-sunxi-mainline/master/build/sun50i_h616/debug/bl31/gicv2_main.o
 .bss.timer_ops
                0x000000004000dbf0        0x8 /home/lodge/Allwinner/Orangepi-H616/external/cache/sources/arm-trusted-firmware-sunxi-mainline/master/build/sun50i_h616/debug/bl31/delay_timer.o
 .bss.ops       0x000000004000dbf8       0x10 /home/lodge/Allwinner/Orangepi-H616/external/cache/sources/arm-trusted-firmware-sunxi-mainline/master/build/sun50i_h616/debug/bl31/generic_delay_timer.o
 .bss.psci_cpu_pd_nodes
                0x000000004000dc08       0x40 /home/lodge/Allwinner/Orangepi-H616/external/cache/sources/arm-trusted-firmware-sunxi-mainline/master/build/sun50i_h616/debug/bl31/psci_common.o
                0x000000004000dc08                psci_cpu_pd_nodes
 .bss.psci_plat_pm_ops
                0x000000004000dc48        0x8 /home/lodge/Allwinner/Orangepi-H616/external/cache/sources/arm-trusted-firmware-sunxi-mainline/master/build/sun50i_h616/debug/bl31/psci_common.o
                0x000000004000dc48                psci_plat_pm_ops
 .bss.psci_spd_pm
                0x000000004000dc50        0x8 /home/lodge/Allwinner/Orangepi-H616/external/cache/sources/arm-trusted-firmware-sunxi-mainline/master/build/sun50i_h616/debug/bl31/psci_common.o
                0x000000004000dc50                psci_spd_pm
 .bss.bl32_image_ep_info
                0x000000004000dc58       0x58 /home/lodge/Allwinner/Orangepi-H616/external/cache/sources/arm-trusted-firmware-sunxi-mainline/master/build/sun50i_h616/debug/bl31/sunxi_bl31_setup.o
 .bss.bl33_image_ep_info
                0x000000004000dcb0       0x58 /home/lodge/Allwinner/Orangepi-H616/external/cache/sources/arm-trusted-firmware-sunxi-mainline/master/build/sun50i_h616/debug/bl31/sunxi_bl31_setup.o
 .bss.console   0x000000004000dd08       0x30 /home/lodge/Allwinner/Orangepi-H616/external/cache/sources/arm-trusted-firmware-sunxi-mainline/master/build/sun50i_h616/debug/bl31/sunxi_bl31_setup.o
 .bss.console_list
                0x000000004000dd38        0x8 /home/lodge/Allwinner/Orangepi-H616/external/cache/sources/arm-trusted-firmware-sunxi-mainline/master/build/sun50i_h616/debug/bl31/multi_console.o
                0x000000004000dd38                console_list
 .bss.mmu_cfg_params
                0x000000004000dd40       0x18 /home/lodge/Allwinner/Orangepi-H616/external/cache/sources/arm-trusted-firmware-sunxi-mainline/master/build/sun50i_h616/debug/bl31/xlat_tables_context.o
                0x000000004000dd40                mmu_cfg_params
 .bss.tf_mmap   0x000000004000dd58      0x168 /home/lodge/Allwinner/Orangepi-H616/external/cache/sources/arm-trusted-firmware-sunxi-mainline/master/build/sun50i_h616/debug/bl31/xlat_tables_context.o
 .bss.psci_plat_core_count
                0x000000004000dec0        0x4 /home/lodge/Allwinner/Orangepi-H616/external/cache/sources/arm-trusted-firmware-sunxi-mainline/master/build/sun50i_h616/debug/bl31/psci_common.o
                0x000000004000dec0                psci_plat_core_count
 .bss.psci_caps
                0x000000004000dec4        0x4 /home/lodge/Allwinner/Orangepi-H616/external/cache/sources/arm-trusted-firmware-sunxi-mainline/master/build/sun50i_h616/debug/bl31/psci_setup.o
                0x000000004000dec4                psci_caps
 .bss.pmic      0x000000004000dec8        0x4 /home/lodge/Allwinner/Orangepi-H616/external/cache/sources/arm-trusted-firmware-sunxi-mainline/master/build/sun50i_h616/debug/bl31/sunxi_power.o
 .bss.rt_svc_descs_indices
                0x000000004000decc       0x80 /home/lodge/Allwinner/Orangepi-H616/external/cache/sources/arm-trusted-firmware-sunxi-mainline/master/build/sun50i_h616/debug/bl31/runtime_svc.o
                0x000000004000decc                rt_svc_descs_indices
 .bss.psci_req_local_pwr_states
                0x000000004000df4c        0x8 /home/lodge/Allwinner/Orangepi-H616/external/cache/sources/arm-trusted-firmware-sunxi-mainline/master/build/sun50i_h616/debug/bl31/psci_common.o
 *(COMMON)
                0x000000004000df80                . = ALIGN (0x40)
 *fill*         0x000000004000df54       0x2c 
                0x000000004000df80                __PMF_TIMESTAMP_START__ = .
 *(pmf_timestamp_array)
                0x000000004000df80                . = ALIGN (0x40)
                0x000000004000df80                __PMF_PERCPU_TIMESTAMP_END__ = .
                0x0000000000000000                __PERCPU_TIMESTAMP_SIZE__ = ABSOLUTE ((. - __PMF_TIMESTAMP_START__))
                0x000000004000df80                . = (. + (__PERCPU_TIMESTAMP_SIZE__ * 0x3))
                0x000000004000df80                __PMF_TIMESTAMP_END__ = .
                0x000000004000df80                . = ALIGN (0x10)
 *(base_xlat_table)
 base_xlat_table
                0x000000004000df80       0x20 /home/lodge/Allwinner/Orangepi-H616/external/cache/sources/arm-trusted-firmware-sunxi-mainline/master/build/sun50i_h616/debug/bl31/xlat_tables_context.o
                0x000000004000dfa0                __BSS_END__ = .

xlat_table      0x000000004000e000     0x4000
 *(xlat_table)
 xlat_table     0x000000004000e000     0x4000 /home/lodge/Allwinner/Orangepi-H616/external/cache/sources/arm-trusted-firmware-sunxi-mainline/master/build/sun50i_h616/debug/bl31/xlat_tables_context.o

coherent_ram    0x0000000040012000     0x1000
                0x0000000040012000                __COHERENT_RAM_START__ = .
 *(bakery_lock)
 bakery_lock    0x0000000040012000       0x10 /home/lodge/Allwinner/Orangepi-H616/external/cache/sources/arm-trusted-firmware-sunxi-mainline/master/build/sun50i_h616/debug/bl31/psci_common.o
                0x0000000040012000                psci_locks
 *(tzfw_coherent_mem)
 tzfw_coherent_mem
                0x0000000040012010       0x20 /home/lodge/Allwinner/Orangepi-H616/external/cache/sources/arm-trusted-firmware-sunxi-mainline/master/build/sun50i_h616/debug/bl31/psci_common.o
                0x0000000040012010                psci_non_cpu_pd_nodes
                0x0000000040012030                __COHERENT_RAM_END_UNALIGNED__ = .
                0x0000000040013000                . = ALIGN (0x1000)
 *fill*         0x0000000040012030      0xfd0 
                0x0000000040013000                __COHERENT_RAM_END__ = .
                0x0000000040013000                __RW_END__ = .
                0x0000000040013000                __BL31_END__ = .

/DISCARD/
 *(.dynsym .dynstr .hash .gnu.hash)
                0x0000000000000001                ASSERT ((. <= 0x40040000), BL31 image has exceeded its limit.)
LOAD /home/lodge/Allwinner/Orangepi-H616/external/cache/sources/arm-trusted-firmware-sunxi-mainline/master/build/sun50i_h616/debug/bl31/build_message.o
LOAD /home/lodge/Allwinner/Orangepi-H616/external/cache/sources/arm-trusted-firmware-sunxi-mainline/master/build/sun50i_h616/debug/bl31/bl31_context_mgmt.o
LOAD /home/lodge/Allwinner/Orangepi-H616/external/cache/sources/arm-trusted-firmware-sunxi-mainline/master/build/sun50i_h616/debug/bl31/bl31_main.o
LOAD /home/lodge/Allwinner/Orangepi-H616/external/cache/sources/arm-trusted-firmware-sunxi-mainline/master/build/sun50i_h616/debug/bl31/interrupt_mgmt.o
LOAD /home/lodge/Allwinner/Orangepi-H616/external/cache/sources/arm-trusted-firmware-sunxi-mainline/master/build/sun50i_h616/debug/bl31/fdt_fixup.o
LOAD /home/lodge/Allwinner/Orangepi-H616/external/cache/sources/arm-trusted-firmware-sunxi-mainline/master/build/sun50i_h616/debug/bl31/runtime_svc.o
LOAD /home/lodge/Allwinner/Orangepi-H616/external/cache/sources/arm-trusted-firmware-sunxi-mainline/master/build/sun50i_h616/debug/bl31/axp805.o
LOAD /home/lodge/Allwinner/Orangepi-H616/external/cache/sources/arm-trusted-firmware-sunxi-mainline/master/build/sun50i_h616/debug/bl31/common.o
LOAD /home/lodge/Allwinner/Orangepi-H616/external/cache/sources/arm-trusted-firmware-sunxi-mainline/master/build/sun50i_h616/debug/bl31/sunxi_rsb.o
LOAD /home/lodge/Allwinner/Orangepi-H616/external/cache/sources/arm-trusted-firmware-sunxi-mainline/master/build/sun50i_h616/debug/bl31/gicdv2_helpers.o
LOAD /home/lodge/Allwinner/Orangepi-H616/external/cache/sources/arm-trusted-firmware-sunxi-mainline/master/build/sun50i_h616/debug/bl31/gicv2_helpers.o
LOAD /home/lodge/Allwinner/Orangepi-H616/external/cache/sources/arm-trusted-firmware-sunxi-mainline/master/build/sun50i_h616/debug/bl31/gicv2_main.o
LOAD /home/lodge/Allwinner/Orangepi-H616/external/cache/sources/arm-trusted-firmware-sunxi-mainline/master/build/sun50i_h616/debug/bl31/delay_timer.o
LOAD /home/lodge/Allwinner/Orangepi-H616/external/cache/sources/arm-trusted-firmware-sunxi-mainline/master/build/sun50i_h616/debug/bl31/generic_delay_timer.o
LOAD /home/lodge/Allwinner/Orangepi-H616/external/cache/sources/arm-trusted-firmware-sunxi-mainline/master/build/sun50i_h616/debug/bl31/errata_report.o
LOAD /home/lodge/Allwinner/Orangepi-H616/external/cache/sources/arm-trusted-firmware-sunxi-mainline/master/build/sun50i_h616/debug/bl31/context_mgmt.o
LOAD /home/lodge/Allwinner/Orangepi-H616/external/cache/sources/arm-trusted-firmware-sunxi-mainline/master/build/sun50i_h616/debug/bl31/cpu_data_array.o
LOAD /home/lodge/Allwinner/Orangepi-H616/external/cache/sources/arm-trusted-firmware-sunxi-mainline/master/build/sun50i_h616/debug/bl31/bakery_lock_coherent.o
LOAD /home/lodge/Allwinner/Orangepi-H616/external/cache/sources/arm-trusted-firmware-sunxi-mainline/master/build/sun50i_h616/debug/bl31/psci_common.o
LOAD /home/lodge/Allwinner/Orangepi-H616/external/cache/sources/arm-trusted-firmware-sunxi-mainline/master/build/sun50i_h616/debug/bl31/psci_main.o
LOAD /home/lodge/Allwinner/Orangepi-H616/external/cache/sources/arm-trusted-firmware-sunxi-mainline/master/build/sun50i_h616/debug/bl31/psci_mem_protect.o
LOAD /home/lodge/Allwinner/Orangepi-H616/external/cache/sources/arm-trusted-firmware-sunxi-mainline/master/build/sun50i_h616/debug/bl31/psci_off.o
LOAD /home/lodge/Allwinner/Orangepi-H616/external/cache/sources/arm-trusted-firmware-sunxi-mainline/master/build/sun50i_h616/debug/bl31/psci_on.o
LOAD /home/lodge/Allwinner/Orangepi-H616/external/cache/sources/arm-trusted-firmware-sunxi-mainline/master/build/sun50i_h616/debug/bl31/psci_setup.o
LOAD /home/lodge/Allwinner/Orangepi-H616/external/cache/sources/arm-trusted-firmware-sunxi-mainline/master/build/sun50i_h616/debug/bl31/psci_suspend.o
LOAD /home/lodge/Allwinner/Orangepi-H616/external/cache/sources/arm-trusted-firmware-sunxi-mainline/master/build/sun50i_h616/debug/bl31/psci_system_off.o
LOAD /home/lodge/Allwinner/Orangepi-H616/external/cache/sources/arm-trusted-firmware-sunxi-mainline/master/build/sun50i_h616/debug/bl31/sunxi_bl31_setup.o
LOAD /home/lodge/Allwinner/Orangepi-H616/external/cache/sources/arm-trusted-firmware-sunxi-mainline/master/build/sun50i_h616/debug/bl31/sunxi_cpu_ops.o
LOAD /home/lodge/Allwinner/Orangepi-H616/external/cache/sources/arm-trusted-firmware-sunxi-mainline/master/build/sun50i_h616/debug/bl31/sunxi_native_pm.o
LOAD /home/lodge/Allwinner/Orangepi-H616/external/cache/sources/arm-trusted-firmware-sunxi-mainline/master/build/sun50i_h616/debug/bl31/sunxi_pm.o
LOAD /home/lodge/Allwinner/Orangepi-H616/external/cache/sources/arm-trusted-firmware-sunxi-mainline/master/build/sun50i_h616/debug/bl31/sunxi_security.o
LOAD /home/lodge/Allwinner/Orangepi-H616/external/cache/sources/arm-trusted-firmware-sunxi-mainline/master/build/sun50i_h616/debug/bl31/sunxi_topology.o
LOAD /home/lodge/Allwinner/Orangepi-H616/external/cache/sources/arm-trusted-firmware-sunxi-mainline/master/build/sun50i_h616/debug/bl31/prepare_dtb.o
LOAD /home/lodge/Allwinner/Orangepi-H616/external/cache/sources/arm-trusted-firmware-sunxi-mainline/master/build/sun50i_h616/debug/bl31/sunxi_power.o
LOAD /home/lodge/Allwinner/Orangepi-H616/external/cache/sources/arm-trusted-firmware-sunxi-mainline/master/build/sun50i_h616/debug/bl31/plat_gicv2.o
LOAD /home/lodge/Allwinner/Orangepi-H616/external/cache/sources/arm-trusted-firmware-sunxi-mainline/master/build/sun50i_h616/debug/bl31/plat_psci_common.o
LOAD /home/lodge/Allwinner/Orangepi-H616/external/cache/sources/arm-trusted-firmware-sunxi-mainline/master/build/sun50i_h616/debug/bl31/arm_arch_svc_setup.o
LOAD /home/lodge/Allwinner/Orangepi-H616/external/cache/sources/arm-trusted-firmware-sunxi-mainline/master/build/sun50i_h616/debug/bl31/std_svc_setup.o
LOAD /home/lodge/Allwinner/Orangepi-H616/external/cache/sources/arm-trusted-firmware-sunxi-mainline/master/build/sun50i_h616/debug/bl31/bl_common.o
LOAD /home/lodge/Allwinner/Orangepi-H616/external/cache/sources/arm-trusted-firmware-sunxi-mainline/master/build/sun50i_h616/debug/bl31/tf_log.o
LOAD /home/lodge/Allwinner/Orangepi-H616/external/cache/sources/arm-trusted-firmware-sunxi-mainline/master/build/sun50i_h616/debug/bl31/multi_console.o
LOAD /home/lodge/Allwinner/Orangepi-H616/external/cache/sources/arm-trusted-firmware-sunxi-mainline/master/build/sun50i_h616/debug/bl31/plat_bl_common.o
LOAD /home/lodge/Allwinner/Orangepi-H616/external/cache/sources/arm-trusted-firmware-sunxi-mainline/master/build/sun50i_h616/debug/bl31/plat_log_common.o
LOAD /home/lodge/Allwinner/Orangepi-H616/external/cache/sources/arm-trusted-firmware-sunxi-mainline/master/build/sun50i_h616/debug/bl31/plat_common.o
LOAD /home/lodge/Allwinner/Orangepi-H616/external/cache/sources/arm-trusted-firmware-sunxi-mainline/master/build/sun50i_h616/debug/bl31/popcountdi2.o
LOAD /home/lodge/Allwinner/Orangepi-H616/external/cache/sources/arm-trusted-firmware-sunxi-mainline/master/build/sun50i_h616/debug/bl31/popcountsi2.o
LOAD /home/lodge/Allwinner/Orangepi-H616/external/cache/sources/arm-trusted-firmware-sunxi-mainline/master/build/sun50i_h616/debug/bl31/xlat_tables_arch.o
LOAD /home/lodge/Allwinner/Orangepi-H616/external/cache/sources/arm-trusted-firmware-sunxi-mainline/master/build/sun50i_h616/debug/bl31/xlat_tables_context.o
LOAD /home/lodge/Allwinner/Orangepi-H616/external/cache/sources/arm-trusted-firmware-sunxi-mainline/master/build/sun50i_h616/debug/bl31/xlat_tables_core.o
LOAD /home/lodge/Allwinner/Orangepi-H616/external/cache/sources/arm-trusted-firmware-sunxi-mainline/master/build/sun50i_h616/debug/bl31/xlat_tables_utils.o
LOAD /home/lodge/Allwinner/Orangepi-H616/external/cache/sources/arm-trusted-firmware-sunxi-mainline/master/build/sun50i_h616/debug/bl31/sunxi_common.o
LOAD /home/lodge/Allwinner/Orangepi-H616/external/cache/sources/arm-trusted-firmware-sunxi-mainline/master/build/sun50i_h616/debug/bl31/bl31_entrypoint.o
LOAD /home/lodge/Allwinner/Orangepi-H616/external/cache/sources/arm-trusted-firmware-sunxi-mainline/master/build/sun50i_h616/debug/bl31/crash_reporting.o
LOAD /home/lodge/Allwinner/Orangepi-H616/external/cache/sources/arm-trusted-firmware-sunxi-mainline/master/build/sun50i_h616/debug/bl31/ea_delegate.o
LOAD /home/lodge/Allwinner/Orangepi-H616/external/cache/sources/arm-trusted-firmware-sunxi-mainline/master/build/sun50i_h616/debug/bl31/runtime_exceptions.o
LOAD /home/lodge/Allwinner/Orangepi-H616/external/cache/sources/arm-trusted-firmware-sunxi-mainline/master/build/sun50i_h616/debug/bl31/cortex_a53.o
LOAD /home/lodge/Allwinner/Orangepi-H616/external/cache/sources/arm-trusted-firmware-sunxi-mainline/master/build/sun50i_h616/debug/bl31/cpu_helpers.o
LOAD /home/lodge/Allwinner/Orangepi-H616/external/cache/sources/arm-trusted-firmware-sunxi-mainline/master/build/sun50i_h616/debug/bl31/dsu_helpers.o
LOAD /home/lodge/Allwinner/Orangepi-H616/external/cache/sources/arm-trusted-firmware-sunxi-mainline/master/build/sun50i_h616/debug/bl31/wa_cve_2017_5715_bpiall.o
LOAD /home/lodge/Allwinner/Orangepi-H616/external/cache/sources/arm-trusted-firmware-sunxi-mainline/master/build/sun50i_h616/debug/bl31/wa_cve_2017_5715_mmu.o
LOAD /home/lodge/Allwinner/Orangepi-H616/external/cache/sources/arm-trusted-firmware-sunxi-mainline/master/build/sun50i_h616/debug/bl31/context.o
LOAD /home/lodge/Allwinner/Orangepi-H616/external/cache/sources/arm-trusted-firmware-sunxi-mainline/master/build/sun50i_h616/debug/bl31/cpu_data.o
LOAD /home/lodge/Allwinner/Orangepi-H616/external/cache/sources/arm-trusted-firmware-sunxi-mainline/master/build/sun50i_h616/debug/bl31/spinlock.o
LOAD /home/lodge/Allwinner/Orangepi-H616/external/cache/sources/arm-trusted-firmware-sunxi-mainline/master/build/sun50i_h616/debug/bl31/psci_helpers.o
LOAD /home/lodge/Allwinner/Orangepi-H616/external/cache/sources/arm-trusted-firmware-sunxi-mainline/master/build/sun50i_h616/debug/bl31/platform_mp_stack.o
LOAD /home/lodge/Allwinner/Orangepi-H616/external/cache/sources/arm-trusted-firmware-sunxi-mainline/master/build/sun50i_h616/debug/bl31/debug.o
LOAD /home/lodge/Allwinner/Orangepi-H616/external/cache/sources/arm-trusted-firmware-sunxi-mainline/master/build/sun50i_h616/debug/bl31/cache_helpers.o
LOAD /home/lodge/Allwinner/Orangepi-H616/external/cache/sources/arm-trusted-firmware-sunxi-mainline/master/build/sun50i_h616/debug/bl31/misc_helpers.o
LOAD /home/lodge/Allwinner/Orangepi-H616/external/cache/sources/arm-trusted-firmware-sunxi-mainline/master/build/sun50i_h616/debug/bl31/platform_helpers.o
LOAD /home/lodge/Allwinner/Orangepi-H616/external/cache/sources/arm-trusted-firmware-sunxi-mainline/master/build/sun50i_h616/debug/bl31/16550_console.o
LOAD /home/lodge/Allwinner/Orangepi-H616/external/cache/sources/arm-trusted-firmware-sunxi-mainline/master/build/sun50i_h616/debug/bl31/enable_mmu.o
LOAD /home/lodge/Allwinner/Orangepi-H616/external/cache/sources/arm-trusted-firmware-sunxi-mainline/master/build/sun50i_h616/debug/bl31/plat_helpers.o
LOAD /home/lodge/Allwinner/Orangepi-H616/external/cache/sources/arm-trusted-firmware-sunxi-mainline/master/build/sun50i_h616/debug/lib/libfdt.a
LOAD /home/lodge/Allwinner/Orangepi-H616/external/cache/sources/arm-trusted-firmware-sunxi-mainline/master/build/sun50i_h616/debug/lib/libc.a
OUTPUT(/home/lodge/Allwinner/Orangepi-H616/external/cache/sources/arm-trusted-firmware-sunxi-mainline/master/build/sun50i_h616/debug/bl31/bl31.elf elf64-littleaarch64)

.debug_info     0x0000000000000000    0x28228
 .debug_info    0x0000000000000000       0x83 /home/lodge/Allwinner/Orangepi-H616/external/cache/sources/arm-trusted-firmware-sunxi-mainline/master/build/sun50i_h616/debug/bl31/build_message.o
 .debug_info    0x0000000000000083      0x620 /home/lodge/Allwinner/Orangepi-H616/external/cache/sources/arm-trusted-firmware-sunxi-mainline/master/build/sun50i_h616/debug/bl31/bl31_context_mgmt.o
 .debug_info    0x00000000000006a3      0xa02 /home/lodge/Allwinner/Orangepi-H616/external/cache/sources/arm-trusted-firmware-sunxi-mainline/master/build/sun50i_h616/debug/bl31/bl31_main.o
 .debug_info    0x00000000000010a5      0x8ed /home/lodge/Allwinner/Orangepi-H616/external/cache/sources/arm-trusted-firmware-sunxi-mainline/master/build/sun50i_h616/debug/bl31/interrupt_mgmt.o
 .debug_info    0x0000000000001992     0x1435 /home/lodge/Allwinner/Orangepi-H616/external/cache/sources/arm-trusted-firmware-sunxi-mainline/master/build/sun50i_h616/debug/bl31/fdt_fixup.o
 .debug_info    0x0000000000002dc7      0x89f /home/lodge/Allwinner/Orangepi-H616/external/cache/sources/arm-trusted-firmware-sunxi-mainline/master/build/sun50i_h616/debug/bl31/runtime_svc.o
 .debug_info    0x0000000000003666      0x1a6 /home/lodge/Allwinner/Orangepi-H616/external/cache/sources/arm-trusted-firmware-sunxi-mainline/master/build/sun50i_h616/debug/bl31/axp805.o
 .debug_info    0x000000000000380c      0xaed /home/lodge/Allwinner/Orangepi-H616/external/cache/sources/arm-trusted-firmware-sunxi-mainline/master/build/sun50i_h616/debug/bl31/common.o
 .debug_info    0x00000000000042f9      0x90b /home/lodge/Allwinner/Orangepi-H616/external/cache/sources/arm-trusted-firmware-sunxi-mainline/master/build/sun50i_h616/debug/bl31/sunxi_rsb.o
 .debug_info    0x0000000000004c04     0x13f1 /home/lodge/Allwinner/Orangepi-H616/external/cache/sources/arm-trusted-firmware-sunxi-mainline/master/build/sun50i_h616/debug/bl31/gicdv2_helpers.o
 .debug_info    0x0000000000005ff5      0xc75 /home/lodge/Allwinner/Orangepi-H616/external/cache/sources/arm-trusted-firmware-sunxi-mainline/master/build/sun50i_h616/debug/bl31/gicv2_helpers.o
 .debug_info    0x0000000000006c6a     0x18dc /home/lodge/Allwinner/Orangepi-H616/external/cache/sources/arm-trusted-firmware-sunxi-mainline/master/build/sun50i_h616/debug/bl31/gicv2_main.o
 .debug_info    0x0000000000008546      0x3a9 /home/lodge/Allwinner/Orangepi-H616/external/cache/sources/arm-trusted-firmware-sunxi-mainline/master/build/sun50i_h616/debug/bl31/delay_timer.o
 .debug_info    0x00000000000088ef      0x37f /home/lodge/Allwinner/Orangepi-H616/external/cache/sources/arm-trusted-firmware-sunxi-mainline/master/build/sun50i_h616/debug/bl31/generic_delay_timer.o
 .debug_info    0x0000000000008c6e      0x4a5 /home/lodge/Allwinner/Orangepi-H616/external/cache/sources/arm-trusted-firmware-sunxi-mainline/master/build/sun50i_h616/debug/bl31/errata_report.o
 .debug_info    0x0000000000009113     0x194c /home/lodge/Allwinner/Orangepi-H616/external/cache/sources/arm-trusted-firmware-sunxi-mainline/master/build/sun50i_h616/debug/bl31/context_mgmt.o
 .debug_info    0x000000000000aa5f      0x2ea /home/lodge/Allwinner/Orangepi-H616/external/cache/sources/arm-trusted-firmware-sunxi-mainline/master/build/sun50i_h616/debug/bl31/cpu_data_array.o
 .debug_info    0x000000000000ad49      0x85d /home/lodge/Allwinner/Orangepi-H616/external/cache/sources/arm-trusted-firmware-sunxi-mainline/master/build/sun50i_h616/debug/bl31/bakery_lock_coherent.o
 .debug_info    0x000000000000b5a6     0x268e /home/lodge/Allwinner/Orangepi-H616/external/cache/sources/arm-trusted-firmware-sunxi-mainline/master/build/sun50i_h616/debug/bl31/psci_common.o
 .debug_info    0x000000000000dc34     0x1953 /home/lodge/Allwinner/Orangepi-H616/external/cache/sources/arm-trusted-firmware-sunxi-mainline/master/build/sun50i_h616/debug/bl31/psci_main.o
 .debug_info    0x000000000000f587      0x990 /home/lodge/Allwinner/Orangepi-H616/external/cache/sources/arm-trusted-firmware-sunxi-mainline/master/build/sun50i_h616/debug/bl31/psci_mem_protect.o
 .debug_info    0x000000000000ff17      0xce1 /home/lodge/Allwinner/Orangepi-H616/external/cache/sources/arm-trusted-firmware-sunxi-mainline/master/build/sun50i_h616/debug/bl31/psci_off.o
 .debug_info    0x0000000000010bf8     0x1205 /home/lodge/Allwinner/Orangepi-H616/external/cache/sources/arm-trusted-firmware-sunxi-mainline/master/build/sun50i_h616/debug/bl31/psci_on.o
 .debug_info    0x0000000000011dfd     0x1259 /home/lodge/Allwinner/Orangepi-H616/external/cache/sources/arm-trusted-firmware-sunxi-mainline/master/build/sun50i_h616/debug/bl31/psci_setup.o
 .debug_info    0x0000000000013056     0x134e /home/lodge/Allwinner/Orangepi-H616/external/cache/sources/arm-trusted-firmware-sunxi-mainline/master/build/sun50i_h616/debug/bl31/psci_suspend.o
 .debug_info    0x00000000000143a4      0xa0c /home/lodge/Allwinner/Orangepi-H616/external/cache/sources/arm-trusted-firmware-sunxi-mainline/master/build/sun50i_h616/debug/bl31/psci_system_off.o
 .debug_info    0x0000000000014db0      0x9fd /home/lodge/Allwinner/Orangepi-H616/external/cache/sources/arm-trusted-firmware-sunxi-mainline/master/build/sun50i_h616/debug/bl31/sunxi_bl31_setup.o
 .debug_info    0x00000000000157ad      0xc32 /home/lodge/Allwinner/Orangepi-H616/external/cache/sources/arm-trusted-firmware-sunxi-mainline/master/build/sun50i_h616/debug/bl31/sunxi_cpu_ops.o
 .debug_info    0x00000000000163df      0x7fc /home/lodge/Allwinner/Orangepi-H616/external/cache/sources/arm-trusted-firmware-sunxi-mainline/master/build/sun50i_h616/debug/bl31/sunxi_native_pm.o
 .debug_info    0x0000000000016bdb      0x68d /home/lodge/Allwinner/Orangepi-H616/external/cache/sources/arm-trusted-firmware-sunxi-mainline/master/build/sun50i_h616/debug/bl31/sunxi_pm.o
 .debug_info    0x0000000000017268      0x324 /home/lodge/Allwinner/Orangepi-H616/external/cache/sources/arm-trusted-firmware-sunxi-mainline/master/build/sun50i_h616/debug/bl31/sunxi_security.o
 .debug_info    0x000000000001758c      0x261 /home/lodge/Allwinner/Orangepi-H616/external/cache/sources/arm-trusted-firmware-sunxi-mainline/master/build/sun50i_h616/debug/bl31/sunxi_topology.o
 .debug_info    0x00000000000177ed      0x3db /home/lodge/Allwinner/Orangepi-H616/external/cache/sources/arm-trusted-firmware-sunxi-mainline/master/build/sun50i_h616/debug/bl31/prepare_dtb.o
 .debug_info    0x0000000000017bc8      0x78d /home/lodge/Allwinner/Orangepi-H616/external/cache/sources/arm-trusted-firmware-sunxi-mainline/master/build/sun50i_h616/debug/bl31/sunxi_power.o
 .debug_info    0x0000000000018355      0x9a2 /home/lodge/Allwinner/Orangepi-H616/external/cache/sources/arm-trusted-firmware-sunxi-mainline/master/build/sun50i_h616/debug/bl31/plat_gicv2.o
 .debug_info    0x0000000000018cf7      0x2a2 /home/lodge/Allwinner/Orangepi-H616/external/cache/sources/arm-trusted-firmware-sunxi-mainline/master/build/sun50i_h616/debug/bl31/plat_psci_common.o
 .debug_info    0x0000000000018f99      0x670 /home/lodge/Allwinner/Orangepi-H616/external/cache/sources/arm-trusted-firmware-sunxi-mainline/master/build/sun50i_h616/debug/bl31/arm_arch_svc_setup.o
 .debug_info    0x0000000000019609      0x9b9 /home/lodge/Allwinner/Orangepi-H616/external/cache/sources/arm-trusted-firmware-sunxi-mainline/master/build/sun50i_h616/debug/bl31/std_svc_setup.o
 .debug_info    0x0000000000019fc2      0xb17 /home/lodge/Allwinner/Orangepi-H616/external/cache/sources/arm-trusted-firmware-sunxi-mainline/master/build/sun50i_h616/debug/bl31/bl_common.o
 .debug_info    0x000000000001aad9      0x3b8 /home/lodge/Allwinner/Orangepi-H616/external/cache/sources/arm-trusted-firmware-sunxi-mainline/master/build/sun50i_h616/debug/bl31/tf_log.o
 .debug_info    0x000000000001ae91      0x6fa /home/lodge/Allwinner/Orangepi-H616/external/cache/sources/arm-trusted-firmware-sunxi-mainline/master/build/sun50i_h616/debug/bl31/multi_console.o
 .debug_info    0x000000000001b58b      0x5d8 /home/lodge/Allwinner/Orangepi-H616/external/cache/sources/arm-trusted-firmware-sunxi-mainline/master/build/sun50i_h616/debug/bl31/plat_bl_common.o
 .debug_info    0x000000000001bb63      0x219 /home/lodge/Allwinner/Orangepi-H616/external/cache/sources/arm-trusted-firmware-sunxi-mainline/master/build/sun50i_h616/debug/bl31/plat_log_common.o
 .debug_info    0x000000000001bd7c      0x4f5 /home/lodge/Allwinner/Orangepi-H616/external/cache/sources/arm-trusted-firmware-sunxi-mainline/master/build/sun50i_h616/debug/bl31/plat_common.o
 .debug_info    0x000000000001c271      0xd59 /home/lodge/Allwinner/Orangepi-H616/external/cache/sources/arm-trusted-firmware-sunxi-mainline/master/build/sun50i_h616/debug/bl31/xlat_tables_arch.o
 .debug_info    0x000000000001cfca      0x9bb /home/lodge/Allwinner/Orangepi-H616/external/cache/sources/arm-trusted-firmware-sunxi-mainline/master/build/sun50i_h616/debug/bl31/xlat_tables_context.o
 .debug_info    0x000000000001d985      0xf88 /home/lodge/Allwinner/Orangepi-H616/external/cache/sources/arm-trusted-firmware-sunxi-mainline/master/build/sun50i_h616/debug/bl31/xlat_tables_core.o
 .debug_info    0x000000000001e90d      0xb4f /home/lodge/Allwinner/Orangepi-H616/external/cache/sources/arm-trusted-firmware-sunxi-mainline/master/build/sun50i_h616/debug/bl31/xlat_tables_utils.o
 .debug_info    0x000000000001f45c      0xd91 /home/lodge/Allwinner/Orangepi-H616/external/cache/sources/arm-trusted-firmware-sunxi-mainline/master/build/sun50i_h616/debug/bl31/sunxi_common.o
 .debug_info    0x00000000000201ed       0x22 /home/lodge/Allwinner/Orangepi-H616/external/cache/sources/arm-trusted-firmware-sunxi-mainline/master/build/sun50i_h616/debug/bl31/bl31_entrypoint.o
 .debug_info    0x000000000002020f       0x22 /home/lodge/Allwinner/Orangepi-H616/external/cache/sources/arm-trusted-firmware-sunxi-mainline/master/build/sun50i_h616/debug/bl31/crash_reporting.o
 .debug_info    0x0000000000020231       0x22 /home/lodge/Allwinner/Orangepi-H616/external/cache/sources/arm-trusted-firmware-sunxi-mainline/master/build/sun50i_h616/debug/bl31/ea_delegate.o
 .debug_info    0x0000000000020253       0x22 /home/lodge/Allwinner/Orangepi-H616/external/cache/sources/arm-trusted-firmware-sunxi-mainline/master/build/sun50i_h616/debug/bl31/runtime_exceptions.o
 .debug_info    0x0000000000020275       0x22 /home/lodge/Allwinner/Orangepi-H616/external/cache/sources/arm-trusted-firmware-sunxi-mainline/master/build/sun50i_h616/debug/bl31/cortex_a53.o
 .debug_info    0x0000000000020297       0x22 /home/lodge/Allwinner/Orangepi-H616/external/cache/sources/arm-trusted-firmware-sunxi-mainline/master/build/sun50i_h616/debug/bl31/cpu_helpers.o
 .debug_info    0x00000000000202b9       0x22 /home/lodge/Allwinner/Orangepi-H616/external/cache/sources/arm-trusted-firmware-sunxi-mainline/master/build/sun50i_h616/debug/bl31/context.o
 .debug_info    0x00000000000202db       0x22 /home/lodge/Allwinner/Orangepi-H616/external/cache/sources/arm-trusted-firmware-sunxi-mainline/master/build/sun50i_h616/debug/bl31/cpu_data.o
 .debug_info    0x00000000000202fd       0x22 /home/lodge/Allwinner/Orangepi-H616/external/cache/sources/arm-trusted-firmware-sunxi-mainline/master/build/sun50i_h616/debug/bl31/spinlock.o
 .debug_info    0x000000000002031f       0x22 /home/lodge/Allwinner/Orangepi-H616/external/cache/sources/arm-trusted-firmware-sunxi-mainline/master/build/sun50i_h616/debug/bl31/psci_helpers.o
 .debug_info    0x0000000000020341       0x22 /home/lodge/Allwinner/Orangepi-H616/external/cache/sources/arm-trusted-firmware-sunxi-mainline/master/build/sun50i_h616/debug/bl31/platform_mp_stack.o
 .debug_info    0x0000000000020363       0x22 /home/lodge/Allwinner/Orangepi-H616/external/cache/sources/arm-trusted-firmware-sunxi-mainline/master/build/sun50i_h616/debug/bl31/debug.o
 .debug_info    0x0000000000020385       0x22 /home/lodge/Allwinner/Orangepi-H616/external/cache/sources/arm-trusted-firmware-sunxi-mainline/master/build/sun50i_h616/debug/bl31/cache_helpers.o
 .debug_info    0x00000000000203a7       0x22 /home/lodge/Allwinner/Orangepi-H616/external/cache/sources/arm-trusted-firmware-sunxi-mainline/master/build/sun50i_h616/debug/bl31/misc_helpers.o
 .debug_info    0x00000000000203c9       0x22 /home/lodge/Allwinner/Orangepi-H616/external/cache/sources/arm-trusted-firmware-sunxi-mainline/master/build/sun50i_h616/debug/bl31/platform_helpers.o
 .debug_info    0x00000000000203eb       0x22 /home/lodge/Allwinner/Orangepi-H616/external/cache/sources/arm-trusted-firmware-sunxi-mainline/master/build/sun50i_h616/debug/bl31/16550_console.o
 .debug_info    0x000000000002040d       0x22 /home/lodge/Allwinner/Orangepi-H616/external/cache/sources/arm-trusted-firmware-sunxi-mainline/master/build/sun50i_h616/debug/bl31/enable_mmu.o
 .debug_info    0x000000000002042f       0x22 /home/lodge/Allwinner/Orangepi-H616/external/cache/sources/arm-trusted-firmware-sunxi-mainline/master/build/sun50i_h616/debug/bl31/plat_helpers.o
 .debug_info    0x0000000000020451      0xf4b /home/lodge/Allwinner/Orangepi-H616/external/cache/sources/arm-trusted-firmware-sunxi-mainline/master/build/sun50i_h616/debug/lib/libfdt.a(fdt.o)
 .debug_info    0x000000000002139c      0x60c /home/lodge/Allwinner/Orangepi-H616/external/cache/sources/arm-trusted-firmware-sunxi-mainline/master/build/sun50i_h616/debug/lib/libfdt.a(fdt_addresses.o)
 .debug_info    0x00000000000219a8     0x28ea /home/lodge/Allwinner/Orangepi-H616/external/cache/sources/arm-trusted-firmware-sunxi-mainline/master/build/sun50i_h616/debug/lib/libfdt.a(fdt_ro.o)
 .debug_info    0x0000000000024292     0x2ed9 /home/lodge/Allwinner/Orangepi-H616/external/cache/sources/arm-trusted-firmware-sunxi-mainline/master/build/sun50i_h616/debug/lib/libfdt.a(fdt_rw.o)
 .debug_info    0x000000000002716b      0x22e /home/lodge/Allwinner/Orangepi-H616/external/cache/sources/arm-trusted-firmware-sunxi-mainline/master/build/sun50i_h616/debug/lib/libc.a(assert.o)
 .debug_info    0x0000000000027399       0xd5 /home/lodge/Allwinner/Orangepi-H616/external/cache/sources/arm-trusted-firmware-sunxi-mainline/master/build/sun50i_h616/debug/lib/libc.a(memchr.o)
 .debug_info    0x000000000002746e      0x10b /home/lodge/Allwinner/Orangepi-H616/external/cache/sources/arm-trusted-firmware-sunxi-mainline/master/build/sun50i_h616/debug/lib/libc.a(memcmp.o)
 .debug_info    0x0000000000027579       0xdc /home/lodge/Allwinner/Orangepi-H616/external/cache/sources/arm-trusted-firmware-sunxi-mainline/master/build/sun50i_h616/debug/lib/libc.a(memcpy.o)
 .debug_info    0x0000000000027655      0x135 /home/lodge/Allwinner/Orangepi-H616/external/cache/sources/arm-trusted-firmware-sunxi-mainline/master/build/sun50i_h616/debug/lib/libc.a(memmove.o)
 .debug_info    0x000000000002778a      0x151 /home/lodge/Allwinner/Orangepi-H616/external/cache/sources/arm-trusted-firmware-sunxi-mainline/master/build/sun50i_h616/debug/lib/libc.a(memset.o)
 .debug_info    0x00000000000278db      0x5a6 /home/lodge/Allwinner/Orangepi-H616/external/cache/sources/arm-trusted-firmware-sunxi-mainline/master/build/sun50i_h616/debug/lib/libc.a(printf.o)
 .debug_info    0x0000000000027e81       0xf1 /home/lodge/Allwinner/Orangepi-H616/external/cache/sources/arm-trusted-firmware-sunxi-mainline/master/build/sun50i_h616/debug/lib/libc.a(putchar.o)
 .debug_info    0x0000000000027f72       0x9a /home/lodge/Allwinner/Orangepi-H616/external/cache/sources/arm-trusted-firmware-sunxi-mainline/master/build/sun50i_h616/debug/lib/libc.a(strcmp.o)
 .debug_info    0x000000000002800c       0x9f /home/lodge/Allwinner/Orangepi-H616/external/cache/sources/arm-trusted-firmware-sunxi-mainline/master/build/sun50i_h616/debug/lib/libc.a(strlen.o)
 .debug_info    0x00000000000280ab       0xb8 /home/lodge/Allwinner/Orangepi-H616/external/cache/sources/arm-trusted-firmware-sunxi-mainline/master/build/sun50i_h616/debug/lib/libc.a(strncmp.o)
 .debug_info    0x0000000000028163       0xc5 /home/lodge/Allwinner/Orangepi-H616/external/cache/sources/arm-trusted-firmware-sunxi-mainline/master/build/sun50i_h616/debug/lib/libc.a(strrchr.o)

.debug_abbrev   0x0000000000000000     0x8cba
 .debug_abbrev  0x0000000000000000       0x45 /home/lodge/Allwinner/Orangepi-H616/external/cache/sources/arm-trusted-firmware-sunxi-mainline/master/build/sun50i_h616/debug/bl31/build_message.o
 .debug_abbrev  0x0000000000000045      0x262 /home/lodge/Allwinner/Orangepi-H616/external/cache/sources/arm-trusted-firmware-sunxi-mainline/master/build/sun50i_h616/debug/bl31/bl31_context_mgmt.o
 .debug_abbrev  0x00000000000002a7      0x331 /home/lodge/Allwinner/Orangepi-H616/external/cache/sources/arm-trusted-firmware-sunxi-mainline/master/build/sun50i_h616/debug/bl31/bl31_main.o
 .debug_abbrev  0x00000000000005d8      0x26d /home/lodge/Allwinner/Orangepi-H616/external/cache/sources/arm-trusted-firmware-sunxi-mainline/master/build/sun50i_h616/debug/bl31/interrupt_mgmt.o
 .debug_abbrev  0x0000000000000845      0x333 /home/lodge/Allwinner/Orangepi-H616/external/cache/sources/arm-trusted-firmware-sunxi-mainline/master/build/sun50i_h616/debug/bl31/fdt_fixup.o
 .debug_abbrev  0x0000000000000b78      0x2d2 /home/lodge/Allwinner/Orangepi-H616/external/cache/sources/arm-trusted-firmware-sunxi-mainline/master/build/sun50i_h616/debug/bl31/runtime_svc.o
 .debug_abbrev  0x0000000000000e4a       0xb3 /home/lodge/Allwinner/Orangepi-H616/external/cache/sources/arm-trusted-firmware-sunxi-mainline/master/build/sun50i_h616/debug/bl31/axp805.o
 .debug_abbrev  0x0000000000000efd      0x25b /home/lodge/Allwinner/Orangepi-H616/external/cache/sources/arm-trusted-firmware-sunxi-mainline/master/build/sun50i_h616/debug/bl31/common.o
 .debug_abbrev  0x0000000000001158      0x1b0 /home/lodge/Allwinner/Orangepi-H616/external/cache/sources/arm-trusted-firmware-sunxi-mainline/master/build/sun50i_h616/debug/bl31/sunxi_rsb.o
 .debug_abbrev  0x0000000000001308      0x25d /home/lodge/Allwinner/Orangepi-H616/external/cache/sources/arm-trusted-firmware-sunxi-mainline/master/build/sun50i_h616/debug/bl31/gicdv2_helpers.o
 .debug_abbrev  0x0000000000001565      0x281 /home/lodge/Allwinner/Orangepi-H616/external/cache/sources/arm-trusted-firmware-sunxi-mainline/master/build/sun50i_h616/debug/bl31/gicv2_helpers.o
 .debug_abbrev  0x00000000000017e6      0x359 /home/lodge/Allwinner/Orangepi-H616/external/cache/sources/arm-trusted-firmware-sunxi-mainline/master/build/sun50i_h616/debug/bl31/gicv2_main.o
 .debug_abbrev  0x0000000000001b3f      0x163 /home/lodge/Allwinner/Orangepi-H616/external/cache/sources/arm-trusted-firmware-sunxi-mainline/master/build/sun50i_h616/debug/bl31/delay_timer.o
 .debug_abbrev  0x0000000000001ca2      0x1dc /home/lodge/Allwinner/Orangepi-H616/external/cache/sources/arm-trusted-firmware-sunxi-mainline/master/build/sun50i_h616/debug/bl31/generic_delay_timer.o
 .debug_abbrev  0x0000000000001e7e      0x1fd /home/lodge/Allwinner/Orangepi-H616/external/cache/sources/arm-trusted-firmware-sunxi-mainline/master/build/sun50i_h616/debug/bl31/errata_report.o
 .debug_abbrev  0x000000000000207b      0x4bd /home/lodge/Allwinner/Orangepi-H616/external/cache/sources/arm-trusted-firmware-sunxi-mainline/master/build/sun50i_h616/debug/bl31/context_mgmt.o
 .debug_abbrev  0x0000000000002538      0x121 /home/lodge/Allwinner/Orangepi-H616/external/cache/sources/arm-trusted-firmware-sunxi-mainline/master/build/sun50i_h616/debug/bl31/cpu_data_array.o
 .debug_abbrev  0x0000000000002659      0x27d /home/lodge/Allwinner/Orangepi-H616/external/cache/sources/arm-trusted-firmware-sunxi-mainline/master/build/sun50i_h616/debug/bl31/bakery_lock_coherent.o
 .debug_abbrev  0x00000000000028d6      0x522 /home/lodge/Allwinner/Orangepi-H616/external/cache/sources/arm-trusted-firmware-sunxi-mainline/master/build/sun50i_h616/debug/bl31/psci_common.o
 .debug_abbrev  0x0000000000002df8      0x4db /home/lodge/Allwinner/Orangepi-H616/external/cache/sources/arm-trusted-firmware-sunxi-mainline/master/build/sun50i_h616/debug/bl31/psci_main.o
 .debug_abbrev  0x00000000000032d3      0x1fd /home/lodge/Allwinner/Orangepi-H616/external/cache/sources/arm-trusted-firmware-sunxi-mainline/master/build/sun50i_h616/debug/bl31/psci_mem_protect.o
 .debug_abbrev  0x00000000000034d0      0x33c /home/lodge/Allwinner/Orangepi-H616/external/cache/sources/arm-trusted-firmware-sunxi-mainline/master/build/sun50i_h616/debug/bl31/psci_off.o
 .debug_abbrev  0x000000000000380c      0x384 /home/lodge/Allwinner/Orangepi-H616/external/cache/sources/arm-trusted-firmware-sunxi-mainline/master/build/sun50i_h616/debug/bl31/psci_on.o
 .debug_abbrev  0x0000000000003b90      0x42a /home/lodge/Allwinner/Orangepi-H616/external/cache/sources/arm-trusted-firmware-sunxi-mainline/master/build/sun50i_h616/debug/bl31/psci_setup.o
 .debug_abbrev  0x0000000000003fba      0x450 /home/lodge/Allwinner/Orangepi-H616/external/cache/sources/arm-trusted-firmware-sunxi-mainline/master/build/sun50i_h616/debug/bl31/psci_suspend.o
 .debug_abbrev  0x000000000000440a      0x229 /home/lodge/Allwinner/Orangepi-H616/external/cache/sources/arm-trusted-firmware-sunxi-mainline/master/build/sun50i_h616/debug/bl31/psci_system_off.o
 .debug_abbrev  0x0000000000004633      0x27b /home/lodge/Allwinner/Orangepi-H616/external/cache/sources/arm-trusted-firmware-sunxi-mainline/master/build/sun50i_h616/debug/bl31/sunxi_bl31_setup.o
 .debug_abbrev  0x00000000000048ae      0x1e0 /home/lodge/Allwinner/Orangepi-H616/external/cache/sources/arm-trusted-firmware-sunxi-mainline/master/build/sun50i_h616/debug/bl31/sunxi_cpu_ops.o
 .debug_abbrev  0x0000000000004a8e      0x22a /home/lodge/Allwinner/Orangepi-H616/external/cache/sources/arm-trusted-firmware-sunxi-mainline/master/build/sun50i_h616/debug/bl31/sunxi_native_pm.o
 .debug_abbrev  0x0000000000004cb8      0x1d1 /home/lodge/Allwinner/Orangepi-H616/external/cache/sources/arm-trusted-firmware-sunxi-mainline/master/build/sun50i_h616/debug/bl31/sunxi_pm.o
 .debug_abbrev  0x0000000000004e89      0x126 /home/lodge/Allwinner/Orangepi-H616/external/cache/sources/arm-trusted-firmware-sunxi-mainline/master/build/sun50i_h616/debug/bl31/sunxi_security.o
 .debug_abbrev  0x0000000000004faf       0xf3 /home/lodge/Allwinner/Orangepi-H616/external/cache/sources/arm-trusted-firmware-sunxi-mainline/master/build/sun50i_h616/debug/bl31/sunxi_topology.o
 .debug_abbrev  0x00000000000050a2      0x18b /home/lodge/Allwinner/Orangepi-H616/external/cache/sources/arm-trusted-firmware-sunxi-mainline/master/build/sun50i_h616/debug/bl31/prepare_dtb.o
 .debug_abbrev  0x000000000000522d      0x28b /home/lodge/Allwinner/Orangepi-H616/external/cache/sources/arm-trusted-firmware-sunxi-mainline/master/build/sun50i_h616/debug/bl31/sunxi_power.o
 .debug_abbrev  0x00000000000054b8      0x1e2 /home/lodge/Allwinner/Orangepi-H616/external/cache/sources/arm-trusted-firmware-sunxi-mainline/master/build/sun50i_h616/debug/bl31/plat_gicv2.o
 .debug_abbrev  0x000000000000569a      0x111 /home/lodge/Allwinner/Orangepi-H616/external/cache/sources/arm-trusted-firmware-sunxi-mainline/master/build/sun50i_h616/debug/bl31/plat_psci_common.o
 .debug_abbrev  0x00000000000057ab      0x278 /home/lodge/Allwinner/Orangepi-H616/external/cache/sources/arm-trusted-firmware-sunxi-mainline/master/build/sun50i_h616/debug/bl31/arm_arch_svc_setup.o
 .debug_abbrev  0x0000000000005a23      0x2ff /home/lodge/Allwinner/Orangepi-H616/external/cache/sources/arm-trusted-firmware-sunxi-mainline/master/build/sun50i_h616/debug/bl31/std_svc_setup.o
 .debug_abbrev  0x0000000000005d22      0x256 /home/lodge/Allwinner/Orangepi-H616/external/cache/sources/arm-trusted-firmware-sunxi-mainline/master/build/sun50i_h616/debug/bl31/bl_common.o
 .debug_abbrev  0x0000000000005f78      0x15a /home/lodge/Allwinner/Orangepi-H616/external/cache/sources/arm-trusted-firmware-sunxi-mainline/master/build/sun50i_h616/debug/bl31/tf_log.o
 .debug_abbrev  0x00000000000060d2      0x25d /home/lodge/Allwinner/Orangepi-H616/external/cache/sources/arm-trusted-firmware-sunxi-mainline/master/build/sun50i_h616/debug/bl31/multi_console.o
 .debug_abbrev  0x000000000000632f      0x2bc /home/lodge/Allwinner/Orangepi-H616/external/cache/sources/arm-trusted-firmware-sunxi-mainline/master/build/sun50i_h616/debug/bl31/plat_bl_common.o
 .debug_abbrev  0x00000000000065eb       0xd7 /home/lodge/Allwinner/Orangepi-H616/external/cache/sources/arm-trusted-firmware-sunxi-mainline/master/build/sun50i_h616/debug/bl31/plat_log_common.o
 .debug_abbrev  0x00000000000066c2      0x1f7 /home/lodge/Allwinner/Orangepi-H616/external/cache/sources/arm-trusted-firmware-sunxi-mainline/master/build/sun50i_h616/debug/bl31/plat_common.o
 .debug_abbrev  0x00000000000068b9      0x344 /home/lodge/Allwinner/Orangepi-H616/external/cache/sources/arm-trusted-firmware-sunxi-mainline/master/build/sun50i_h616/debug/bl31/xlat_tables_arch.o
 .debug_abbrev  0x0000000000006bfd      0x1f2 /home/lodge/Allwinner/Orangepi-H616/external/cache/sources/arm-trusted-firmware-sunxi-mainline/master/build/sun50i_h616/debug/bl31/xlat_tables_context.o
 .debug_abbrev  0x0000000000006def      0x350 /home/lodge/Allwinner/Orangepi-H616/external/cache/sources/arm-trusted-firmware-sunxi-mainline/master/build/sun50i_h616/debug/bl31/xlat_tables_core.o
 .debug_abbrev  0x000000000000713f      0x295 /home/lodge/Allwinner/Orangepi-H616/external/cache/sources/arm-trusted-firmware-sunxi-mainline/master/build/sun50i_h616/debug/bl31/xlat_tables_utils.o
 .debug_abbrev  0x00000000000073d4      0x266 /home/lodge/Allwinner/Orangepi-H616/external/cache/sources/arm-trusted-firmware-sunxi-mainline/master/build/sun50i_h616/debug/bl31/sunxi_common.o
 .debug_abbrev  0x000000000000763a       0x12 /home/lodge/Allwinner/Orangepi-H616/external/cache/sources/arm-trusted-firmware-sunxi-mainline/master/build/sun50i_h616/debug/bl31/bl31_entrypoint.o
 .debug_abbrev  0x000000000000764c       0x12 /home/lodge/Allwinner/Orangepi-H616/external/cache/sources/arm-trusted-firmware-sunxi-mainline/master/build/sun50i_h616/debug/bl31/crash_reporting.o
 .debug_abbrev  0x000000000000765e       0x12 /home/lodge/Allwinner/Orangepi-H616/external/cache/sources/arm-trusted-firmware-sunxi-mainline/master/build/sun50i_h616/debug/bl31/ea_delegate.o
 .debug_abbrev  0x0000000000007670       0x12 /home/lodge/Allwinner/Orangepi-H616/external/cache/sources/arm-trusted-firmware-sunxi-mainline/master/build/sun50i_h616/debug/bl31/runtime_exceptions.o
 .debug_abbrev  0x0000000000007682       0x12 /home/lodge/Allwinner/Orangepi-H616/external/cache/sources/arm-trusted-firmware-sunxi-mainline/master/build/sun50i_h616/debug/bl31/cortex_a53.o
 .debug_abbrev  0x0000000000007694       0x12 /home/lodge/Allwinner/Orangepi-H616/external/cache/sources/arm-trusted-firmware-sunxi-mainline/master/build/sun50i_h616/debug/bl31/cpu_helpers.o
 .debug_abbrev  0x00000000000076a6       0x12 /home/lodge/Allwinner/Orangepi-H616/external/cache/sources/arm-trusted-firmware-sunxi-mainline/master/build/sun50i_h616/debug/bl31/context.o
 .debug_abbrev  0x00000000000076b8       0x12 /home/lodge/Allwinner/Orangepi-H616/external/cache/sources/arm-trusted-firmware-sunxi-mainline/master/build/sun50i_h616/debug/bl31/cpu_data.o
 .debug_abbrev  0x00000000000076ca       0x12 /home/lodge/Allwinner/Orangepi-H616/external/cache/sources/arm-trusted-firmware-sunxi-mainline/master/build/sun50i_h616/debug/bl31/spinlock.o
 .debug_abbrev  0x00000000000076dc       0x12 /home/lodge/Allwinner/Orangepi-H616/external/cache/sources/arm-trusted-firmware-sunxi-mainline/master/build/sun50i_h616/debug/bl31/psci_helpers.o
 .debug_abbrev  0x00000000000076ee       0x12 /home/lodge/Allwinner/Orangepi-H616/external/cache/sources/arm-trusted-firmware-sunxi-mainline/master/build/sun50i_h616/debug/bl31/platform_mp_stack.o
 .debug_abbrev  0x0000000000007700       0x12 /home/lodge/Allwinner/Orangepi-H616/external/cache/sources/arm-trusted-firmware-sunxi-mainline/master/build/sun50i_h616/debug/bl31/debug.o
 .debug_abbrev  0x0000000000007712       0x12 /home/lodge/Allwinner/Orangepi-H616/external/cache/sources/arm-trusted-firmware-sunxi-mainline/master/build/sun50i_h616/debug/bl31/cache_helpers.o
 .debug_abbrev  0x0000000000007724       0x12 /home/lodge/Allwinner/Orangepi-H616/external/cache/sources/arm-trusted-firmware-sunxi-mainline/master/build/sun50i_h616/debug/bl31/misc_helpers.o
 .debug_abbrev  0x0000000000007736       0x12 /home/lodge/Allwinner/Orangepi-H616/external/cache/sources/arm-trusted-firmware-sunxi-mainline/master/build/sun50i_h616/debug/bl31/platform_helpers.o
 .debug_abbrev  0x0000000000007748       0x12 /home/lodge/Allwinner/Orangepi-H616/external/cache/sources/arm-trusted-firmware-sunxi-mainline/master/build/sun50i_h616/debug/bl31/16550_console.o
 .debug_abbrev  0x000000000000775a       0x12 /home/lodge/Allwinner/Orangepi-H616/external/cache/sources/arm-trusted-firmware-sunxi-mainline/master/build/sun50i_h616/debug/bl31/enable_mmu.o
 .debug_abbrev  0x000000000000776c       0x12 /home/lodge/Allwinner/Orangepi-H616/external/cache/sources/arm-trusted-firmware-sunxi-mainline/master/build/sun50i_h616/debug/bl31/plat_helpers.o
 .debug_abbrev  0x000000000000777e      0x2ae /home/lodge/Allwinner/Orangepi-H616/external/cache/sources/arm-trusted-firmware-sunxi-mainline/master/build/sun50i_h616/debug/lib/libfdt.a(fdt.o)
 .debug_abbrev  0x0000000000007a2c      0x1cf /home/lodge/Allwinner/Orangepi-H616/external/cache/sources/arm-trusted-firmware-sunxi-mainline/master/build/sun50i_h616/debug/lib/libfdt.a(fdt_addresses.o)
 .debug_abbrev  0x0000000000007bfb      0x36e /home/lodge/Allwinner/Orangepi-H616/external/cache/sources/arm-trusted-firmware-sunxi-mainline/master/build/sun50i_h616/debug/lib/libfdt.a(fdt_ro.o)
 .debug_abbrev  0x0000000000007f69      0x437 /home/lodge/Allwinner/Orangepi-H616/external/cache/sources/arm-trusted-firmware-sunxi-mainline/master/build/sun50i_h616/debug/lib/libfdt.a(fdt_rw.o)
 .debug_abbrev  0x00000000000083a0       0xe3 /home/lodge/Allwinner/Orangepi-H616/external/cache/sources/arm-trusted-firmware-sunxi-mainline/master/build/sun50i_h616/debug/lib/libc.a(assert.o)
 .debug_abbrev  0x0000000000008483       0x9b /home/lodge/Allwinner/Orangepi-H616/external/cache/sources/arm-trusted-firmware-sunxi-mainline/master/build/sun50i_h616/debug/lib/libc.a(memchr.o)
 .debug_abbrev  0x000000000000851e       0x94 /home/lodge/Allwinner/Orangepi-H616/external/cache/sources/arm-trusted-firmware-sunxi-mainline/master/build/sun50i_h616/debug/lib/libc.a(memcmp.o)
 .debug_abbrev  0x00000000000085b2       0xa1 /home/lodge/Allwinner/Orangepi-H616/external/cache/sources/arm-trusted-firmware-sunxi-mainline/master/build/sun50i_h616/debug/lib/libc.a(memcpy.o)
 .debug_abbrev  0x0000000000008653       0xc6 /home/lodge/Allwinner/Orangepi-H616/external/cache/sources/arm-trusted-firmware-sunxi-mainline/master/build/sun50i_h616/debug/lib/libc.a(memmove.o)
 .debug_abbrev  0x0000000000008719       0xc8 /home/lodge/Allwinner/Orangepi-H616/external/cache/sources/arm-trusted-firmware-sunxi-mainline/master/build/sun50i_h616/debug/lib/libc.a(memset.o)
 .debug_abbrev  0x00000000000087e1      0x240 /home/lodge/Allwinner/Orangepi-H616/external/cache/sources/arm-trusted-firmware-sunxi-mainline/master/build/sun50i_h616/debug/lib/libc.a(printf.o)
 .debug_abbrev  0x0000000000008a21       0x9a /home/lodge/Allwinner/Orangepi-H616/external/cache/sources/arm-trusted-firmware-sunxi-mainline/master/build/sun50i_h616/debug/lib/libc.a(putchar.o)
 .debug_abbrev  0x0000000000008abb       0x6c /home/lodge/Allwinner/Orangepi-H616/external/cache/sources/arm-trusted-firmware-sunxi-mainline/master/build/sun50i_h616/debug/lib/libc.a(strcmp.o)
 .debug_abbrev  0x0000000000008b27       0x84 /home/lodge/Allwinner/Orangepi-H616/external/cache/sources/arm-trusted-firmware-sunxi-mainline/master/build/sun50i_h616/debug/lib/libc.a(strlen.o)
 .debug_abbrev  0x0000000000008bab       0x7b /home/lodge/Allwinner/Orangepi-H616/external/cache/sources/arm-trusted-firmware-sunxi-mainline/master/build/sun50i_h616/debug/lib/libc.a(strncmp.o)
 .debug_abbrev  0x0000000000008c26       0x94 /home/lodge/Allwinner/Orangepi-H616/external/cache/sources/arm-trusted-firmware-sunxi-mainline/master/build/sun50i_h616/debug/lib/libc.a(strrchr.o)

.debug_aranges  0x0000000000000000     0x2a10
 .debug_aranges
                0x0000000000000000       0x20 /home/lodge/Allwinner/Orangepi-H616/external/cache/sources/arm-trusted-firmware-sunxi-mainline/master/build/sun50i_h616/debug/bl31/build_message.o
 .debug_aranges
                0x0000000000000020       0x70 /home/lodge/Allwinner/Orangepi-H616/external/cache/sources/arm-trusted-firmware-sunxi-mainline/master/build/sun50i_h616/debug/bl31/bl31_context_mgmt.o
 .debug_aranges
                0x0000000000000090       0xa0 /home/lodge/Allwinner/Orangepi-H616/external/cache/sources/arm-trusted-firmware-sunxi-mainline/master/build/sun50i_h616/debug/bl31/bl31_main.o
 .debug_aranges
                0x0000000000000130       0x90 /home/lodge/Allwinner/Orangepi-H616/external/cache/sources/arm-trusted-firmware-sunxi-mainline/master/build/sun50i_h616/debug/bl31/interrupt_mgmt.o
 .debug_aranges
                0x00000000000001c0       0xb0 /home/lodge/Allwinner/Orangepi-H616/external/cache/sources/arm-trusted-firmware-sunxi-mainline/master/build/sun50i_h616/debug/bl31/fdt_fixup.o
 .debug_aranges
                0x0000000000000270       0x40 /home/lodge/Allwinner/Orangepi-H616/external/cache/sources/arm-trusted-firmware-sunxi-mainline/master/build/sun50i_h616/debug/bl31/runtime_svc.o
 .debug_aranges
                0x00000000000002b0       0x20 /home/lodge/Allwinner/Orangepi-H616/external/cache/sources/arm-trusted-firmware-sunxi-mainline/master/build/sun50i_h616/debug/bl31/axp805.o
 .debug_aranges
                0x00000000000002d0       0x60 /home/lodge/Allwinner/Orangepi-H616/external/cache/sources/arm-trusted-firmware-sunxi-mainline/master/build/sun50i_h616/debug/bl31/common.o
 .debug_aranges
                0x0000000000000330       0xa0 /home/lodge/Allwinner/Orangepi-H616/external/cache/sources/arm-trusted-firmware-sunxi-mainline/master/build/sun50i_h616/debug/bl31/sunxi_rsb.o
 .debug_aranges
                0x00000000000003d0      0x220 /home/lodge/Allwinner/Orangepi-H616/external/cache/sources/arm-trusted-firmware-sunxi-mainline/master/build/sun50i_h616/debug/bl31/gicdv2_helpers.o
 .debug_aranges
                0x00000000000005f0       0xc0 /home/lodge/Allwinner/Orangepi-H616/external/cache/sources/arm-trusted-firmware-sunxi-mainline/master/build/sun50i_h616/debug/bl31/gicv2_helpers.o
 .debug_aranges
                0x00000000000006b0      0x1a0 /home/lodge/Allwinner/Orangepi-H616/external/cache/sources/arm-trusted-firmware-sunxi-mainline/master/build/sun50i_h616/debug/bl31/gicv2_main.o
 .debug_aranges
                0x0000000000000850       0x50 /home/lodge/Allwinner/Orangepi-H616/external/cache/sources/arm-trusted-firmware-sunxi-mainline/master/build/sun50i_h616/debug/bl31/delay_timer.o
 .debug_aranges
                0x00000000000008a0       0x50 /home/lodge/Allwinner/Orangepi-H616/external/cache/sources/arm-trusted-firmware-sunxi-mainline/master/build/sun50i_h616/debug/bl31/generic_delay_timer.o
 .debug_aranges
                0x00000000000008f0       0x40 /home/lodge/Allwinner/Orangepi-H616/external/cache/sources/arm-trusted-firmware-sunxi-mainline/master/build/sun50i_h616/debug/bl31/errata_report.o
 .debug_aranges
                0x0000000000000930       0xe0 /home/lodge/Allwinner/Orangepi-H616/external/cache/sources/arm-trusted-firmware-sunxi-mainline/master/build/sun50i_h616/debug/bl31/context_mgmt.o
 .debug_aranges
                0x0000000000000a10       0x20 /home/lodge/Allwinner/Orangepi-H616/external/cache/sources/arm-trusted-firmware-sunxi-mainline/master/build/sun50i_h616/debug/bl31/cpu_data_array.o
 .debug_aranges
                0x0000000000000a30       0x40 /home/lodge/Allwinner/Orangepi-H616/external/cache/sources/arm-trusted-firmware-sunxi-mainline/master/build/sun50i_h616/debug/bl31/bakery_lock_coherent.o
 .debug_aranges
                0x0000000000000a70      0x190 /home/lodge/Allwinner/Orangepi-H616/external/cache/sources/arm-trusted-firmware-sunxi-mainline/master/build/sun50i_h616/debug/bl31/psci_common.o
 .debug_aranges
                0x0000000000000c00       0xe0 /home/lodge/Allwinner/Orangepi-H616/external/cache/sources/arm-trusted-firmware-sunxi-mainline/master/build/sun50i_h616/debug/bl31/psci_main.o
 .debug_aranges
                0x0000000000000ce0       0x40 /home/lodge/Allwinner/Orangepi-H616/external/cache/sources/arm-trusted-firmware-sunxi-mainline/master/build/sun50i_h616/debug/bl31/psci_mem_protect.o
 .debug_aranges
                0x0000000000000d20       0x30 /home/lodge/Allwinner/Orangepi-H616/external/cache/sources/arm-trusted-firmware-sunxi-mainline/master/build/sun50i_h616/debug/bl31/psci_off.o
 .debug_aranges
                0x0000000000000d50       0x40 /home/lodge/Allwinner/Orangepi-H616/external/cache/sources/arm-trusted-firmware-sunxi-mainline/master/build/sun50i_h616/debug/bl31/psci_on.o
 .debug_aranges
                0x0000000000000d90       0x50 /home/lodge/Allwinner/Orangepi-H616/external/cache/sources/arm-trusted-firmware-sunxi-mainline/master/build/sun50i_h616/debug/bl31/psci_setup.o
 .debug_aranges
                0x0000000000000de0       0x40 /home/lodge/Allwinner/Orangepi-H616/external/cache/sources/arm-trusted-firmware-sunxi-mainline/master/build/sun50i_h616/debug/bl31/psci_suspend.o
 .debug_aranges
                0x0000000000000e20       0x50 /home/lodge/Allwinner/Orangepi-H616/external/cache/sources/arm-trusted-firmware-sunxi-mainline/master/build/sun50i_h616/debug/bl31/psci_system_off.o
 .debug_aranges
                0x0000000000000e70       0x60 /home/lodge/Allwinner/Orangepi-H616/external/cache/sources/arm-trusted-firmware-sunxi-mainline/master/build/sun50i_h616/debug/bl31/sunxi_bl31_setup.o
 .debug_aranges
                0x0000000000000ed0       0x40 /home/lodge/Allwinner/Orangepi-H616/external/cache/sources/arm-trusted-firmware-sunxi-mainline/master/build/sun50i_h616/debug/bl31/sunxi_cpu_ops.o
 .debug_aranges
                0x0000000000000f10       0x80 /home/lodge/Allwinner/Orangepi-H616/external/cache/sources/arm-trusted-firmware-sunxi-mainline/master/build/sun50i_h616/debug/bl31/sunxi_native_pm.o
 .debug_aranges
                0x0000000000000f90       0x40 /home/lodge/Allwinner/Orangepi-H616/external/cache/sources/arm-trusted-firmware-sunxi-mainline/master/build/sun50i_h616/debug/bl31/sunxi_pm.o
 .debug_aranges
                0x0000000000000fd0       0x30 /home/lodge/Allwinner/Orangepi-H616/external/cache/sources/arm-trusted-firmware-sunxi-mainline/master/build/sun50i_h616/debug/bl31/sunxi_security.o
 .debug_aranges
                0x0000000000001000       0x40 /home/lodge/Allwinner/Orangepi-H616/external/cache/sources/arm-trusted-firmware-sunxi-mainline/master/build/sun50i_h616/debug/bl31/sunxi_topology.o
 .debug_aranges
                0x0000000000001040       0x30 /home/lodge/Allwinner/Orangepi-H616/external/cache/sources/arm-trusted-firmware-sunxi-mainline/master/build/sun50i_h616/debug/bl31/prepare_dtb.o
 .debug_aranges
                0x0000000000001070       0x80 /home/lodge/Allwinner/Orangepi-H616/external/cache/sources/arm-trusted-firmware-sunxi-mainline/master/build/sun50i_h616/debug/bl31/sunxi_power.o
 .debug_aranges
                0x00000000000010f0      0x180 /home/lodge/Allwinner/Orangepi-H616/external/cache/sources/arm-trusted-firmware-sunxi-mainline/master/build/sun50i_h616/debug/bl31/plat_gicv2.o
 .debug_aranges
                0x0000000000001270       0x30 /home/lodge/Allwinner/Orangepi-H616/external/cache/sources/arm-trusted-firmware-sunxi-mainline/master/build/sun50i_h616/debug/bl31/plat_psci_common.o
 .debug_aranges
                0x00000000000012a0       0x30 /home/lodge/Allwinner/Orangepi-H616/external/cache/sources/arm-trusted-firmware-sunxi-mainline/master/build/sun50i_h616/debug/bl31/arm_arch_svc_setup.o
 .debug_aranges
                0x00000000000012d0       0x40 /home/lodge/Allwinner/Orangepi-H616/external/cache/sources/arm-trusted-firmware-sunxi-mainline/master/build/sun50i_h616/debug/bl31/std_svc_setup.o
 .debug_aranges
                0x0000000000001310       0x50 /home/lodge/Allwinner/Orangepi-H616/external/cache/sources/arm-trusted-firmware-sunxi-mainline/master/build/sun50i_h616/debug/bl31/bl_common.o
 .debug_aranges
                0x0000000000001360       0x50 /home/lodge/Allwinner/Orangepi-H616/external/cache/sources/arm-trusted-firmware-sunxi-mainline/master/build/sun50i_h616/debug/bl31/tf_log.o
 .debug_aranges
                0x00000000000013b0       0xa0 /home/lodge/Allwinner/Orangepi-H616/external/cache/sources/arm-trusted-firmware-sunxi-mainline/master/build/sun50i_h616/debug/bl31/multi_console.o
 .debug_aranges
                0x0000000000001450       0xa0 /home/lodge/Allwinner/Orangepi-H616/external/cache/sources/arm-trusted-firmware-sunxi-mainline/master/build/sun50i_h616/debug/bl31/plat_bl_common.o
 .debug_aranges
                0x00000000000014f0       0x30 /home/lodge/Allwinner/Orangepi-H616/external/cache/sources/arm-trusted-firmware-sunxi-mainline/master/build/sun50i_h616/debug/bl31/plat_log_common.o
 .debug_aranges
                0x0000000000001520       0x60 /home/lodge/Allwinner/Orangepi-H616/external/cache/sources/arm-trusted-firmware-sunxi-mainline/master/build/sun50i_h616/debug/bl31/plat_common.o
 .debug_aranges
                0x0000000000001580       0xf0 /home/lodge/Allwinner/Orangepi-H616/external/cache/sources/arm-trusted-firmware-sunxi-mainline/master/build/sun50i_h616/debug/bl31/xlat_tables_arch.o
 .debug_aranges
                0x0000000000001670       0xd0 /home/lodge/Allwinner/Orangepi-H616/external/cache/sources/arm-trusted-firmware-sunxi-mainline/master/build/sun50i_h616/debug/bl31/xlat_tables_context.o
 .debug_aranges
                0x0000000000001740       0x80 /home/lodge/Allwinner/Orangepi-H616/external/cache/sources/arm-trusted-firmware-sunxi-mainline/master/build/sun50i_h616/debug/bl31/xlat_tables_core.o
 .debug_aranges
                0x00000000000017c0       0x70 /home/lodge/Allwinner/Orangepi-H616/external/cache/sources/arm-trusted-firmware-sunxi-mainline/master/build/sun50i_h616/debug/bl31/xlat_tables_utils.o
 .debug_aranges
                0x0000000000001830       0x70 /home/lodge/Allwinner/Orangepi-H616/external/cache/sources/arm-trusted-firmware-sunxi-mainline/master/build/sun50i_h616/debug/bl31/sunxi_common.o
 .debug_aranges
                0x00000000000018a0       0x40 /home/lodge/Allwinner/Orangepi-H616/external/cache/sources/arm-trusted-firmware-sunxi-mainline/master/build/sun50i_h616/debug/bl31/bl31_entrypoint.o
 .debug_aranges
                0x00000000000018e0       0xa0 /home/lodge/Allwinner/Orangepi-H616/external/cache/sources/arm-trusted-firmware-sunxi-mainline/master/build/sun50i_h616/debug/bl31/crash_reporting.o
 .debug_aranges
                0x0000000000001980       0x80 /home/lodge/Allwinner/Orangepi-H616/external/cache/sources/arm-trusted-firmware-sunxi-mainline/master/build/sun50i_h616/debug/bl31/ea_delegate.o
 .debug_aranges
                0x0000000000001a00       0x40 /home/lodge/Allwinner/Orangepi-H616/external/cache/sources/arm-trusted-firmware-sunxi-mainline/master/build/sun50i_h616/debug/bl31/runtime_exceptions.o
 .debug_aranges
                0x0000000000001a40      0x150 /home/lodge/Allwinner/Orangepi-H616/external/cache/sources/arm-trusted-firmware-sunxi-mainline/master/build/sun50i_h616/debug/bl31/cortex_a53.o
 .debug_aranges
                0x0000000000001b90       0xf0 /home/lodge/Allwinner/Orangepi-H616/external/cache/sources/arm-trusted-firmware-sunxi-mainline/master/build/sun50i_h616/debug/bl31/cpu_helpers.o
 .debug_aranges
                0x0000000000001c80       0x80 /home/lodge/Allwinner/Orangepi-H616/external/cache/sources/arm-trusted-firmware-sunxi-mainline/master/build/sun50i_h616/debug/bl31/context.o
 .debug_aranges
                0x0000000000001d00       0x40 /home/lodge/Allwinner/Orangepi-H616/external/cache/sources/arm-trusted-firmware-sunxi-mainline/master/build/sun50i_h616/debug/bl31/cpu_data.o
 .debug_aranges
                0x0000000000001d40       0x40 /home/lodge/Allwinner/Orangepi-H616/external/cache/sources/arm-trusted-firmware-sunxi-mainline/master/build/sun50i_h616/debug/bl31/spinlock.o
 .debug_aranges
                0x0000000000001d80       0x50 /home/lodge/Allwinner/Orangepi-H616/external/cache/sources/arm-trusted-firmware-sunxi-mainline/master/build/sun50i_h616/debug/bl31/psci_helpers.o
 .debug_aranges
                0x0000000000001dd0       0x40 /home/lodge/Allwinner/Orangepi-H616/external/cache/sources/arm-trusted-firmware-sunxi-mainline/master/build/sun50i_h616/debug/bl31/platform_mp_stack.o
 .debug_aranges
                0x0000000000001e10       0x70 /home/lodge/Allwinner/Orangepi-H616/external/cache/sources/arm-trusted-firmware-sunxi-mainline/master/build/sun50i_h616/debug/bl31/debug.o
 .debug_aranges
                0x0000000000001e80       0xc0 /home/lodge/Allwinner/Orangepi-H616/external/cache/sources/arm-trusted-firmware-sunxi-mainline/master/build/sun50i_h616/debug/bl31/cache_helpers.o
 .debug_aranges
                0x0000000000001f40       0xc0 /home/lodge/Allwinner/Orangepi-H616/external/cache/sources/arm-trusted-firmware-sunxi-mainline/master/build/sun50i_h616/debug/bl31/misc_helpers.o
 .debug_aranges
                0x0000000000002000       0xc0 /home/lodge/Allwinner/Orangepi-H616/external/cache/sources/arm-trusted-firmware-sunxi-mainline/master/build/sun50i_h616/debug/bl31/platform_helpers.o
 .debug_aranges
                0x00000000000020c0       0xa0 /home/lodge/Allwinner/Orangepi-H616/external/cache/sources/arm-trusted-firmware-sunxi-mainline/master/build/sun50i_h616/debug/bl31/16550_console.o
 .debug_aranges
                0x0000000000002160       0x50 /home/lodge/Allwinner/Orangepi-H616/external/cache/sources/arm-trusted-firmware-sunxi-mainline/master/build/sun50i_h616/debug/bl31/enable_mmu.o
 .debug_aranges
                0x00000000000021b0       0x80 /home/lodge/Allwinner/Orangepi-H616/external/cache/sources/arm-trusted-firmware-sunxi-mainline/master/build/sun50i_h616/debug/bl31/plat_helpers.o
 .debug_aranges
                0x0000000000002230      0x100 /home/lodge/Allwinner/Orangepi-H616/external/cache/sources/arm-trusted-firmware-sunxi-mainline/master/build/sun50i_h616/debug/lib/libfdt.a(fdt.o)
 .debug_aranges
                0x0000000000002330       0x60 /home/lodge/Allwinner/Orangepi-H616/external/cache/sources/arm-trusted-firmware-sunxi-mainline/master/build/sun50i_h616/debug/lib/libfdt.a(fdt_addresses.o)
 .debug_aranges
                0x0000000000002390      0x2a0 /home/lodge/Allwinner/Orangepi-H616/external/cache/sources/arm-trusted-firmware-sunxi-mainline/master/build/sun50i_h616/debug/lib/libfdt.a(fdt_ro.o)
 .debug_aranges
                0x0000000000002630      0x180 /home/lodge/Allwinner/Orangepi-H616/external/cache/sources/arm-trusted-firmware-sunxi-mainline/master/build/sun50i_h616/debug/lib/libfdt.a(fdt_rw.o)
 .debug_aranges
                0x00000000000027b0       0x30 /home/lodge/Allwinner/Orangepi-H616/external/cache/sources/arm-trusted-firmware-sunxi-mainline/master/build/sun50i_h616/debug/lib/libc.a(assert.o)
 .debug_aranges
                0x00000000000027e0       0x30 /home/lodge/Allwinner/Orangepi-H616/external/cache/sources/arm-trusted-firmware-sunxi-mainline/master/build/sun50i_h616/debug/lib/libc.a(memchr.o)
 .debug_aranges
                0x0000000000002810       0x30 /home/lodge/Allwinner/Orangepi-H616/external/cache/sources/arm-trusted-firmware-sunxi-mainline/master/build/sun50i_h616/debug/lib/libc.a(memcmp.o)
 .debug_aranges
                0x0000000000002840       0x30 /home/lodge/Allwinner/Orangepi-H616/external/cache/sources/arm-trusted-firmware-sunxi-mainline/master/build/sun50i_h616/debug/lib/libc.a(memcpy.o)
 .debug_aranges
                0x0000000000002870       0x30 /home/lodge/Allwinner/Orangepi-H616/external/cache/sources/arm-trusted-firmware-sunxi-mainline/master/build/sun50i_h616/debug/lib/libc.a(memmove.o)
 .debug_aranges
                0x00000000000028a0       0x30 /home/lodge/Allwinner/Orangepi-H616/external/cache/sources/arm-trusted-firmware-sunxi-mainline/master/build/sun50i_h616/debug/lib/libc.a(memset.o)
 .debug_aranges
                0x00000000000028d0       0x50 /home/lodge/Allwinner/Orangepi-H616/external/cache/sources/arm-trusted-firmware-sunxi-mainline/master/build/sun50i_h616/debug/lib/libc.a(printf.o)
 .debug_aranges
                0x0000000000002920       0x30 /home/lodge/Allwinner/Orangepi-H616/external/cache/sources/arm-trusted-firmware-sunxi-mainline/master/build/sun50i_h616/debug/lib/libc.a(putchar.o)
 .debug_aranges
                0x0000000000002950       0x30 /home/lodge/Allwinner/Orangepi-H616/external/cache/sources/arm-trusted-firmware-sunxi-mainline/master/build/sun50i_h616/debug/lib/libc.a(strcmp.o)
 .debug_aranges
                0x0000000000002980       0x30 /home/lodge/Allwinner/Orangepi-H616/external/cache/sources/arm-trusted-firmware-sunxi-mainline/master/build/sun50i_h616/debug/lib/libc.a(strlen.o)
 .debug_aranges
                0x00000000000029b0       0x30 /home/lodge/Allwinner/Orangepi-H616/external/cache/sources/arm-trusted-firmware-sunxi-mainline/master/build/sun50i_h616/debug/lib/libc.a(strncmp.o)
 .debug_aranges
                0x00000000000029e0       0x30 /home/lodge/Allwinner/Orangepi-H616/external/cache/sources/arm-trusted-firmware-sunxi-mainline/master/build/sun50i_h616/debug/lib/libc.a(strrchr.o)

.debug_line     0x0000000000000000    0x11877
 .debug_line    0x0000000000000000       0x28 /home/lodge/Allwinner/Orangepi-H616/external/cache/sources/arm-trusted-firmware-sunxi-mainline/master/build/sun50i_h616/debug/bl31/build_message.o
 .debug_line    0x0000000000000028      0x2a6 /home/lodge/Allwinner/Orangepi-H616/external/cache/sources/arm-trusted-firmware-sunxi-mainline/master/build/sun50i_h616/debug/bl31/bl31_context_mgmt.o
 .debug_line    0x00000000000002ce      0x3d8 /home/lodge/Allwinner/Orangepi-H616/external/cache/sources/arm-trusted-firmware-sunxi-mainline/master/build/sun50i_h616/debug/bl31/bl31_main.o
 .debug_line    0x00000000000006a6      0x3f1 /home/lodge/Allwinner/Orangepi-H616/external/cache/sources/arm-trusted-firmware-sunxi-mainline/master/build/sun50i_h616/debug/bl31/interrupt_mgmt.o
 .debug_line    0x0000000000000a97      0x734 /home/lodge/Allwinner/Orangepi-H616/external/cache/sources/arm-trusted-firmware-sunxi-mainline/master/build/sun50i_h616/debug/bl31/fdt_fixup.o
 .debug_line    0x00000000000011cb      0x385 /home/lodge/Allwinner/Orangepi-H616/external/cache/sources/arm-trusted-firmware-sunxi-mainline/master/build/sun50i_h616/debug/bl31/runtime_svc.o
 .debug_line    0x0000000000001550       0x7f /home/lodge/Allwinner/Orangepi-H616/external/cache/sources/arm-trusted-firmware-sunxi-mainline/master/build/sun50i_h616/debug/bl31/axp805.o
 .debug_line    0x00000000000015cf      0x45f /home/lodge/Allwinner/Orangepi-H616/external/cache/sources/arm-trusted-firmware-sunxi-mainline/master/build/sun50i_h616/debug/bl31/common.o
 .debug_line    0x0000000000001a2e      0x49f /home/lodge/Allwinner/Orangepi-H616/external/cache/sources/arm-trusted-firmware-sunxi-mainline/master/build/sun50i_h616/debug/bl31/sunxi_rsb.o
 .debug_line    0x0000000000001ecd      0x7b9 /home/lodge/Allwinner/Orangepi-H616/external/cache/sources/arm-trusted-firmware-sunxi-mainline/master/build/sun50i_h616/debug/bl31/gicdv2_helpers.o
 .debug_line    0x0000000000002686      0x5a9 /home/lodge/Allwinner/Orangepi-H616/external/cache/sources/arm-trusted-firmware-sunxi-mainline/master/build/sun50i_h616/debug/bl31/gicv2_helpers.o
 .debug_line    0x0000000000002c2f      0xcd7 /home/lodge/Allwinner/Orangepi-H616/external/cache/sources/arm-trusted-firmware-sunxi-mainline/master/build/sun50i_h616/debug/bl31/gicv2_main.o
 .debug_line    0x0000000000003906      0x225 /home/lodge/Allwinner/Orangepi-H616/external/cache/sources/arm-trusted-firmware-sunxi-mainline/master/build/sun50i_h616/debug/bl31/delay_timer.o
 .debug_line    0x0000000000003b2b      0x1be /home/lodge/Allwinner/Orangepi-H616/external/cache/sources/arm-trusted-firmware-sunxi-mainline/master/build/sun50i_h616/debug/bl31/generic_delay_timer.o
 .debug_line    0x0000000000003ce9      0x1bd /home/lodge/Allwinner/Orangepi-H616/external/cache/sources/arm-trusted-firmware-sunxi-mainline/master/build/sun50i_h616/debug/bl31/errata_report.o
 .debug_line    0x0000000000003ea6      0x9ff /home/lodge/Allwinner/Orangepi-H616/external/cache/sources/arm-trusted-firmware-sunxi-mainline/master/build/sun50i_h616/debug/bl31/context_mgmt.o
 .debug_line    0x00000000000048a5       0xbd /home/lodge/Allwinner/Orangepi-H616/external/cache/sources/arm-trusted-firmware-sunxi-mainline/master/build/sun50i_h616/debug/bl31/cpu_data_array.o
 .debug_line    0x0000000000004962      0x3e6 /home/lodge/Allwinner/Orangepi-H616/external/cache/sources/arm-trusted-firmware-sunxi-mainline/master/build/sun50i_h616/debug/bl31/bakery_lock_coherent.o
 .debug_line    0x0000000000004d48     0x1230 /home/lodge/Allwinner/Orangepi-H616/external/cache/sources/arm-trusted-firmware-sunxi-mainline/master/build/sun50i_h616/debug/bl31/psci_common.o
 .debug_line    0x0000000000005f78      0x87d /home/lodge/Allwinner/Orangepi-H616/external/cache/sources/arm-trusted-firmware-sunxi-mainline/master/build/sun50i_h616/debug/bl31/psci_main.o
 .debug_line    0x00000000000067f5      0x1d0 /home/lodge/Allwinner/Orangepi-H616/external/cache/sources/arm-trusted-firmware-sunxi-mainline/master/build/sun50i_h616/debug/bl31/psci_mem_protect.o
 .debug_line    0x00000000000069c5      0x2cd /home/lodge/Allwinner/Orangepi-H616/external/cache/sources/arm-trusted-firmware-sunxi-mainline/master/build/sun50i_h616/debug/bl31/psci_off.o
 .debug_line    0x0000000000006c92      0x490 /home/lodge/Allwinner/Orangepi-H616/external/cache/sources/arm-trusted-firmware-sunxi-mainline/master/build/sun50i_h616/debug/bl31/psci_on.o
 .debug_line    0x0000000000007122      0x6b0 /home/lodge/Allwinner/Orangepi-H616/external/cache/sources/arm-trusted-firmware-sunxi-mainline/master/build/sun50i_h616/debug/bl31/psci_setup.o
 .debug_line    0x00000000000077d2      0x4ed /home/lodge/Allwinner/Orangepi-H616/external/cache/sources/arm-trusted-firmware-sunxi-mainline/master/build/sun50i_h616/debug/bl31/psci_suspend.o
 .debug_line    0x0000000000007cbf      0x25b /home/lodge/Allwinner/Orangepi-H616/external/cache/sources/arm-trusted-firmware-sunxi-mainline/master/build/sun50i_h616/debug/bl31/psci_system_off.o
 .debug_line    0x0000000000007f1a      0x409 /home/lodge/Allwinner/Orangepi-H616/external/cache/sources/arm-trusted-firmware-sunxi-mainline/master/build/sun50i_h616/debug/bl31/sunxi_bl31_setup.o
 .debug_line    0x0000000000008323      0x50d /home/lodge/Allwinner/Orangepi-H616/external/cache/sources/arm-trusted-firmware-sunxi-mainline/master/build/sun50i_h616/debug/bl31/sunxi_cpu_ops.o
 .debug_line    0x0000000000008830      0x24a /home/lodge/Allwinner/Orangepi-H616/external/cache/sources/arm-trusted-firmware-sunxi-mainline/master/build/sun50i_h616/debug/bl31/sunxi_native_pm.o
 .debug_line    0x0000000000008a7a      0x223 /home/lodge/Allwinner/Orangepi-H616/external/cache/sources/arm-trusted-firmware-sunxi-mainline/master/build/sun50i_h616/debug/bl31/sunxi_pm.o
 .debug_line    0x0000000000008c9d      0x15e /home/lodge/Allwinner/Orangepi-H616/external/cache/sources/arm-trusted-firmware-sunxi-mainline/master/build/sun50i_h616/debug/bl31/sunxi_security.o
 .debug_line    0x0000000000008dfb       0xde /home/lodge/Allwinner/Orangepi-H616/external/cache/sources/arm-trusted-firmware-sunxi-mainline/master/build/sun50i_h616/debug/bl31/sunxi_topology.o
 .debug_line    0x0000000000008ed9      0x1c3 /home/lodge/Allwinner/Orangepi-H616/external/cache/sources/arm-trusted-firmware-sunxi-mainline/master/build/sun50i_h616/debug/bl31/prepare_dtb.o
 .debug_line    0x000000000000909c      0x2fb /home/lodge/Allwinner/Orangepi-H616/external/cache/sources/arm-trusted-firmware-sunxi-mainline/master/build/sun50i_h616/debug/bl31/sunxi_power.o
 .debug_line    0x0000000000009397      0x442 /home/lodge/Allwinner/Orangepi-H616/external/cache/sources/arm-trusted-firmware-sunxi-mainline/master/build/sun50i_h616/debug/bl31/plat_gicv2.o
 .debug_line    0x00000000000097d9      0x10e /home/lodge/Allwinner/Orangepi-H616/external/cache/sources/arm-trusted-firmware-sunxi-mainline/master/build/sun50i_h616/debug/bl31/plat_psci_common.o
 .debug_line    0x00000000000098e7      0x245 /home/lodge/Allwinner/Orangepi-H616/external/cache/sources/arm-trusted-firmware-sunxi-mainline/master/build/sun50i_h616/debug/bl31/arm_arch_svc_setup.o
 .debug_line    0x0000000000009b2c      0x30e /home/lodge/Allwinner/Orangepi-H616/external/cache/sources/arm-trusted-firmware-sunxi-mainline/master/build/sun50i_h616/debug/bl31/std_svc_setup.o
 .debug_line    0x0000000000009e3a      0x3a6 /home/lodge/Allwinner/Orangepi-H616/external/cache/sources/arm-trusted-firmware-sunxi-mainline/master/build/sun50i_h616/debug/bl31/bl_common.o
 .debug_line    0x000000000000a1e0      0x1df /home/lodge/Allwinner/Orangepi-H616/external/cache/sources/arm-trusted-firmware-sunxi-mainline/master/build/sun50i_h616/debug/bl31/tf_log.o
 .debug_line    0x000000000000a3bf      0x41a /home/lodge/Allwinner/Orangepi-H616/external/cache/sources/arm-trusted-firmware-sunxi-mainline/master/build/sun50i_h616/debug/bl31/multi_console.o
 .debug_line    0x000000000000a7d9      0x284 /home/lodge/Allwinner/Orangepi-H616/external/cache/sources/arm-trusted-firmware-sunxi-mainline/master/build/sun50i_h616/debug/bl31/plat_bl_common.o
 .debug_line    0x000000000000aa5d       0xa1 /home/lodge/Allwinner/Orangepi-H616/external/cache/sources/arm-trusted-firmware-sunxi-mainline/master/build/sun50i_h616/debug/bl31/plat_log_common.o
 .debug_line    0x000000000000aafe      0x205 /home/lodge/Allwinner/Orangepi-H616/external/cache/sources/arm-trusted-firmware-sunxi-mainline/master/build/sun50i_h616/debug/bl31/plat_common.o
 .debug_line    0x000000000000ad03      0x709 /home/lodge/Allwinner/Orangepi-H616/external/cache/sources/arm-trusted-firmware-sunxi-mainline/master/build/sun50i_h616/debug/bl31/xlat_tables_arch.o
 .debug_line    0x000000000000b40c      0x38f /home/lodge/Allwinner/Orangepi-H616/external/cache/sources/arm-trusted-firmware-sunxi-mainline/master/build/sun50i_h616/debug/bl31/xlat_tables_context.o
 .debug_line    0x000000000000b79b      0x8b9 /home/lodge/Allwinner/Orangepi-H616/external/cache/sources/arm-trusted-firmware-sunxi-mainline/master/build/sun50i_h616/debug/bl31/xlat_tables_core.o
 .debug_line    0x000000000000c054      0x67c /home/lodge/Allwinner/Orangepi-H616/external/cache/sources/arm-trusted-firmware-sunxi-mainline/master/build/sun50i_h616/debug/bl31/xlat_tables_utils.o
 .debug_line    0x000000000000c6d0      0x54a /home/lodge/Allwinner/Orangepi-H616/external/cache/sources/arm-trusted-firmware-sunxi-mainline/master/build/sun50i_h616/debug/bl31/sunxi_common.o
 .debug_line    0x000000000000cc1a       0x97 /home/lodge/Allwinner/Orangepi-H616/external/cache/sources/arm-trusted-firmware-sunxi-mainline/master/build/sun50i_h616/debug/bl31/bl31_entrypoint.o
 .debug_line    0x000000000000ccb1      0x18e /home/lodge/Allwinner/Orangepi-H616/external/cache/sources/arm-trusted-firmware-sunxi-mainline/master/build/sun50i_h616/debug/bl31/crash_reporting.o
 .debug_line    0x000000000000ce3f       0xf9 /home/lodge/Allwinner/Orangepi-H616/external/cache/sources/arm-trusted-firmware-sunxi-mainline/master/build/sun50i_h616/debug/bl31/ea_delegate.o
 .debug_line    0x000000000000cf38       0xc9 /home/lodge/Allwinner/Orangepi-H616/external/cache/sources/arm-trusted-firmware-sunxi-mainline/master/build/sun50i_h616/debug/bl31/runtime_exceptions.o
 .debug_line    0x000000000000d001      0x216 /home/lodge/Allwinner/Orangepi-H616/external/cache/sources/arm-trusted-firmware-sunxi-mainline/master/build/sun50i_h616/debug/bl31/cortex_a53.o
 .debug_line    0x000000000000d217      0x1be /home/lodge/Allwinner/Orangepi-H616/external/cache/sources/arm-trusted-firmware-sunxi-mainline/master/build/sun50i_h616/debug/bl31/cpu_helpers.o
 .debug_line    0x000000000000d3d5      0x156 /home/lodge/Allwinner/Orangepi-H616/external/cache/sources/arm-trusted-firmware-sunxi-mainline/master/build/sun50i_h616/debug/bl31/context.o
 .debug_line    0x000000000000d52b       0x72 /home/lodge/Allwinner/Orangepi-H616/external/cache/sources/arm-trusted-firmware-sunxi-mainline/master/build/sun50i_h616/debug/bl31/cpu_data.o
 .debug_line    0x000000000000d59d       0x76 /home/lodge/Allwinner/Orangepi-H616/external/cache/sources/arm-trusted-firmware-sunxi-mainline/master/build/sun50i_h616/debug/bl31/spinlock.o
 .debug_line    0x000000000000d613       0x97 /home/lodge/Allwinner/Orangepi-H616/external/cache/sources/arm-trusted-firmware-sunxi-mainline/master/build/sun50i_h616/debug/bl31/psci_helpers.o
 .debug_line    0x000000000000d6aa       0x73 /home/lodge/Allwinner/Orangepi-H616/external/cache/sources/arm-trusted-firmware-sunxi-mainline/master/build/sun50i_h616/debug/bl31/platform_mp_stack.o
 .debug_line    0x000000000000d71d       0xce /home/lodge/Allwinner/Orangepi-H616/external/cache/sources/arm-trusted-firmware-sunxi-mainline/master/build/sun50i_h616/debug/bl31/debug.o
 .debug_line    0x000000000000d7eb      0x136 /home/lodge/Allwinner/Orangepi-H616/external/cache/sources/arm-trusted-firmware-sunxi-mainline/master/build/sun50i_h616/debug/bl31/cache_helpers.o
 .debug_line    0x000000000000d921      0x197 /home/lodge/Allwinner/Orangepi-H616/external/cache/sources/arm-trusted-firmware-sunxi-mainline/master/build/sun50i_h616/debug/bl31/misc_helpers.o
 .debug_line    0x000000000000dab8      0x10c /home/lodge/Allwinner/Orangepi-H616/external/cache/sources/arm-trusted-firmware-sunxi-mainline/master/build/sun50i_h616/debug/bl31/platform_helpers.o
 .debug_line    0x000000000000dbc4      0x131 /home/lodge/Allwinner/Orangepi-H616/external/cache/sources/arm-trusted-firmware-sunxi-mainline/master/build/sun50i_h616/debug/bl31/16550_console.o
 .debug_line    0x000000000000dcf5       0x84 /home/lodge/Allwinner/Orangepi-H616/external/cache/sources/arm-trusted-firmware-sunxi-mainline/master/build/sun50i_h616/debug/bl31/enable_mmu.o
 .debug_line    0x000000000000dd79       0xbf /home/lodge/Allwinner/Orangepi-H616/external/cache/sources/arm-trusted-firmware-sunxi-mainline/master/build/sun50i_h616/debug/bl31/plat_helpers.o
 .debug_line    0x000000000000de38      0x80a /home/lodge/Allwinner/Orangepi-H616/external/cache/sources/arm-trusted-firmware-sunxi-mainline/master/build/sun50i_h616/debug/lib/libfdt.a(fdt.o)
 .debug_line    0x000000000000e642      0x2dd /home/lodge/Allwinner/Orangepi-H616/external/cache/sources/arm-trusted-firmware-sunxi-mainline/master/build/sun50i_h616/debug/lib/libfdt.a(fdt_addresses.o)
 .debug_line    0x000000000000e91f     0x1380 /home/lodge/Allwinner/Orangepi-H616/external/cache/sources/arm-trusted-firmware-sunxi-mainline/master/build/sun50i_h616/debug/lib/libfdt.a(fdt_ro.o)
 .debug_line    0x000000000000fc9f     0x1067 /home/lodge/Allwinner/Orangepi-H616/external/cache/sources/arm-trusted-firmware-sunxi-mainline/master/build/sun50i_h616/debug/lib/libfdt.a(fdt_rw.o)
 .debug_line    0x0000000000010d06       0xea /home/lodge/Allwinner/Orangepi-H616/external/cache/sources/arm-trusted-firmware-sunxi-mainline/master/build/sun50i_h616/debug/lib/libc.a(assert.o)
 .debug_line    0x0000000000010df0       0x94 /home/lodge/Allwinner/Orangepi-H616/external/cache/sources/arm-trusted-firmware-sunxi-mainline/master/build/sun50i_h616/debug/lib/libc.a(memchr.o)
 .debug_line    0x0000000000010e84       0xa9 /home/lodge/Allwinner/Orangepi-H616/external/cache/sources/arm-trusted-firmware-sunxi-mainline/master/build/sun50i_h616/debug/lib/libc.a(memcmp.o)
 .debug_line    0x0000000000010f2d       0x89 /home/lodge/Allwinner/Orangepi-H616/external/cache/sources/arm-trusted-firmware-sunxi-mainline/master/build/sun50i_h616/debug/lib/libc.a(memcpy.o)
 .debug_line    0x0000000000010fb6       0xcf /home/lodge/Allwinner/Orangepi-H616/external/cache/sources/arm-trusted-firmware-sunxi-mainline/master/build/sun50i_h616/debug/lib/libc.a(memmove.o)
 .debug_line    0x0000000000011085      0x153 /home/lodge/Allwinner/Orangepi-H616/external/cache/sources/arm-trusted-firmware-sunxi-mainline/master/build/sun50i_h616/debug/lib/libc.a(memset.o)
 .debug_line    0x00000000000111d8      0x400 /home/lodge/Allwinner/Orangepi-H616/external/cache/sources/arm-trusted-firmware-sunxi-mainline/master/build/sun50i_h616/debug/lib/libc.a(printf.o)
 .debug_line    0x00000000000115d8       0x7f /home/lodge/Allwinner/Orangepi-H616/external/cache/sources/arm-trusted-firmware-sunxi-mainline/master/build/sun50i_h616/debug/lib/libc.a(putchar.o)
 .debug_line    0x0000000000011657       0x72 /home/lodge/Allwinner/Orangepi-H616/external/cache/sources/arm-trusted-firmware-sunxi-mainline/master/build/sun50i_h616/debug/lib/libc.a(strcmp.o)
 .debug_line    0x00000000000116c9       0x8a /home/lodge/Allwinner/Orangepi-H616/external/cache/sources/arm-trusted-firmware-sunxi-mainline/master/build/sun50i_h616/debug/lib/libc.a(strlen.o)
 .debug_line    0x0000000000011753       0xa7 /home/lodge/Allwinner/Orangepi-H616/external/cache/sources/arm-trusted-firmware-sunxi-mainline/master/build/sun50i_h616/debug/lib/libc.a(strncmp.o)
 .debug_line    0x00000000000117fa       0x7d /home/lodge/Allwinner/Orangepi-H616/external/cache/sources/arm-trusted-firmware-sunxi-mainline/master/build/sun50i_h616/debug/lib/libc.a(strrchr.o)

.debug_str      0x0000000000000000     0x5813
 .debug_str     0x0000000000000000      0x172 /home/lodge/Allwinner/Orangepi-H616/external/cache/sources/arm-trusted-firmware-sunxi-mainline/master/build/sun50i_h616/debug/bl31/build_message.o
                                        0x189 (size before relaxing)
 .debug_str     0x0000000000000172      0x343 /home/lodge/Allwinner/Orangepi-H616/external/cache/sources/arm-trusted-firmware-sunxi-mainline/master/build/sun50i_h616/debug/bl31/bl31_context_mgmt.o
                                        0x545 (size before relaxing)
 .debug_str     0x00000000000004b5      0x31b /home/lodge/Allwinner/Orangepi-H616/external/cache/sources/arm-trusted-firmware-sunxi-mainline/master/build/sun50i_h616/debug/bl31/bl31_main.o
                                        0x6e1 (size before relaxing)
 .debug_str     0x00000000000007d0      0x1e3 /home/lodge/Allwinner/Orangepi-H616/external/cache/sources/arm-trusted-firmware-sunxi-mainline/master/build/sun50i_h616/debug/bl31/interrupt_mgmt.o
                                        0x577 (size before relaxing)
 .debug_str     0x00000000000009b3      0x2a4 /home/lodge/Allwinner/Orangepi-H616/external/cache/sources/arm-trusted-firmware-sunxi-mainline/master/build/sun50i_h616/debug/bl31/fdt_fixup.o
                                        0x638 (size before relaxing)
 .debug_str     0x0000000000000c57      0x18c /home/lodge/Allwinner/Orangepi-H616/external/cache/sources/arm-trusted-firmware-sunxi-mainline/master/build/sun50i_h616/debug/bl31/runtime_svc.o
                                        0x5d4 (size before relaxing)
 .debug_str     0x0000000000000de3       0xb9 /home/lodge/Allwinner/Orangepi-H616/external/cache/sources/arm-trusted-firmware-sunxi-mainline/master/build/sun50i_h616/debug/bl31/axp805.o
                                        0x2c3 (size before relaxing)
 .debug_str     0x0000000000000e9c      0x13f /home/lodge/Allwinner/Orangepi-H616/external/cache/sources/arm-trusted-firmware-sunxi-mainline/master/build/sun50i_h616/debug/bl31/common.o
                                        0x45e (size before relaxing)
 .debug_str     0x0000000000000fdb       0xea /home/lodge/Allwinner/Orangepi-H616/external/cache/sources/arm-trusted-firmware-sunxi-mainline/master/build/sun50i_h616/debug/bl31/sunxi_rsb.o
                                        0x33c (size before relaxing)
 .debug_str     0x00000000000010c5      0x2a2 /home/lodge/Allwinner/Orangepi-H616/external/cache/sources/arm-trusted-firmware-sunxi-mainline/master/build/sun50i_h616/debug/bl31/gicdv2_helpers.o
                                        0x609 (size before relaxing)
 .debug_str     0x0000000000001367      0x1d2 /home/lodge/Allwinner/Orangepi-H616/external/cache/sources/arm-trusted-firmware-sunxi-mainline/master/build/sun50i_h616/debug/bl31/gicv2_helpers.o
                                        0x600 (size before relaxing)
 .debug_str     0x0000000000001539      0x403 /home/lodge/Allwinner/Orangepi-H616/external/cache/sources/arm-trusted-firmware-sunxi-mainline/master/build/sun50i_h616/debug/bl31/gicv2_main.o
                                        0x961 (size before relaxing)
 .debug_str     0x000000000000193c       0x7d /home/lodge/Allwinner/Orangepi-H616/external/cache/sources/arm-trusted-firmware-sunxi-mainline/master/build/sun50i_h616/debug/bl31/delay_timer.o
                                        0x3e7 (size before relaxing)
 .debug_str     0x00000000000019b9       0xa1 /home/lodge/Allwinner/Orangepi-H616/external/cache/sources/arm-trusted-firmware-sunxi-mainline/master/build/sun50i_h616/debug/bl31/generic_delay_timer.o
                                        0x42f (size before relaxing)
 .debug_str     0x0000000000001a5a       0x6e /home/lodge/Allwinner/Orangepi-H616/external/cache/sources/arm-trusted-firmware-sunxi-mainline/master/build/sun50i_h616/debug/bl31/errata_report.o
                                        0x4e2 (size before relaxing)
 .debug_str     0x0000000000001ac8      0x554 /home/lodge/Allwinner/Orangepi-H616/external/cache/sources/arm-trusted-firmware-sunxi-mainline/master/build/sun50i_h616/debug/bl31/context_mgmt.o
                                        0xb9e (size before relaxing)
 .debug_str     0x000000000000201c       0x21 /home/lodge/Allwinner/Orangepi-H616/external/cache/sources/arm-trusted-firmware-sunxi-mainline/master/build/sun50i_h616/debug/bl31/cpu_data_array.o
                                        0x47e (size before relaxing)
 .debug_str     0x000000000000203d      0x12a /home/lodge/Allwinner/Orangepi-H616/external/cache/sources/arm-trusted-firmware-sunxi-mainline/master/build/sun50i_h616/debug/bl31/bakery_lock_coherent.o
                                        0x56f (size before relaxing)
 .debug_str     0x0000000000002167      0x97a /home/lodge/Allwinner/Orangepi-H616/external/cache/sources/arm-trusted-firmware-sunxi-mainline/master/build/sun50i_h616/debug/bl31/psci_common.o
                                       0x10e8 (size before relaxing)
 .debug_str     0x0000000000002ae1      0x20c /home/lodge/Allwinner/Orangepi-H616/external/cache/sources/arm-trusted-firmware-sunxi-mainline/master/build/sun50i_h616/debug/bl31/psci_main.o
                                        0xd03 (size before relaxing)
 .debug_str     0x0000000000002ced       0x1c /home/lodge/Allwinner/Orangepi-H616/external/cache/sources/arm-trusted-firmware-sunxi-mainline/master/build/sun50i_h616/debug/bl31/psci_mem_protect.o
                                        0x857 (size before relaxing)
 .debug_str     0x0000000000002d09       0x5e /home/lodge/Allwinner/Orangepi-H616/external/cache/sources/arm-trusted-firmware-sunxi-mainline/master/build/sun50i_h616/debug/bl31/psci_off.o
                                        0x9a7 (size before relaxing)
 .debug_str     0x0000000000002d67       0x91 /home/lodge/Allwinner/Orangepi-H616/external/cache/sources/arm-trusted-firmware-sunxi-mainline/master/build/sun50i_h616/debug/bl31/psci_on.o
                                        0xcb2 (size before relaxing)
 .debug_str     0x0000000000002df8      0x1b9 /home/lodge/Allwinner/Orangepi-H616/external/cache/sources/arm-trusted-firmware-sunxi-mainline/master/build/sun50i_h616/debug/bl31/psci_setup.o
                                        0xd13 (size before relaxing)
 .debug_str     0x0000000000002fb1       0x92 /home/lodge/Allwinner/Orangepi-H616/external/cache/sources/arm-trusted-firmware-sunxi-mainline/master/build/sun50i_h616/debug/bl31/psci_suspend.o
                                        0xdc0 (size before relaxing)
 .debug_str     0x0000000000003043       0x30 /home/lodge/Allwinner/Orangepi-H616/external/cache/sources/arm-trusted-firmware-sunxi-mainline/master/build/sun50i_h616/debug/bl31/psci_system_off.o
                                        0x89a (size before relaxing)
 .debug_str     0x0000000000003073      0x12c /home/lodge/Allwinner/Orangepi-H616/external/cache/sources/arm-trusted-firmware-sunxi-mainline/master/build/sun50i_h616/debug/bl31/sunxi_bl31_setup.o
                                        0x720 (size before relaxing)
 .debug_str     0x000000000000319f       0xb9 /home/lodge/Allwinner/Orangepi-H616/external/cache/sources/arm-trusted-firmware-sunxi-mainline/master/build/sun50i_h616/debug/bl31/sunxi_cpu_ops.o
                                        0x446 (size before relaxing)
 .debug_str     0x0000000000003258       0xea /home/lodge/Allwinner/Orangepi-H616/external/cache/sources/arm-trusted-firmware-sunxi-mainline/master/build/sun50i_h616/debug/bl31/sunxi_native_pm.o
                                        0x713 (size before relaxing)
 .debug_str     0x0000000000003342       0x65 /home/lodge/Allwinner/Orangepi-H616/external/cache/sources/arm-trusted-firmware-sunxi-mainline/master/build/sun50i_h616/debug/bl31/sunxi_pm.o
                                        0x628 (size before relaxing)
 .debug_str     0x00000000000033a7       0x27 /home/lodge/Allwinner/Orangepi-H616/external/cache/sources/arm-trusted-firmware-sunxi-mainline/master/build/sun50i_h616/debug/bl31/sunxi_security.o
                                        0x390 (size before relaxing)
 .debug_str     0x00000000000033ce       0x43 /home/lodge/Allwinner/Orangepi-H616/external/cache/sources/arm-trusted-firmware-sunxi-mainline/master/build/sun50i_h616/debug/bl31/sunxi_topology.o
                                        0x3c5 (size before relaxing)
 .debug_str     0x0000000000003411       0x6c /home/lodge/Allwinner/Orangepi-H616/external/cache/sources/arm-trusted-firmware-sunxi-mainline/master/build/sun50i_h616/debug/bl31/prepare_dtb.o
                                        0x3ff (size before relaxing)
 .debug_str     0x000000000000347d       0x70 /home/lodge/Allwinner/Orangepi-H616/external/cache/sources/arm-trusted-firmware-sunxi-mainline/master/build/sun50i_h616/debug/bl31/sunxi_power.o
                                        0x55e (size before relaxing)
 .debug_str     0x00000000000034ed      0x255 /home/lodge/Allwinner/Orangepi-H616/external/cache/sources/arm-trusted-firmware-sunxi-mainline/master/build/sun50i_h616/debug/bl31/plat_gicv2.o
                                        0x7c0 (size before relaxing)
 .debug_str     0x0000000000003742       0x29 /home/lodge/Allwinner/Orangepi-H616/external/cache/sources/arm-trusted-firmware-sunxi-mainline/master/build/sun50i_h616/debug/bl31/plat_psci_common.o
                                        0x3a0 (size before relaxing)
 .debug_str     0x000000000000376b      0x10b /home/lodge/Allwinner/Orangepi-H616/external/cache/sources/arm-trusted-firmware-sunxi-mainline/master/build/sun50i_h616/debug/bl31/arm_arch_svc_setup.o
                                        0x60d (size before relaxing)
 .debug_str     0x0000000000003876       0xdd /home/lodge/Allwinner/Orangepi-H616/external/cache/sources/arm-trusted-firmware-sunxi-mainline/master/build/sun50i_h616/debug/bl31/std_svc_setup.o
                                        0x79d (size before relaxing)
 .debug_str     0x0000000000003953      0x487 /home/lodge/Allwinner/Orangepi-H616/external/cache/sources/arm-trusted-firmware-sunxi-mainline/master/build/sun50i_h616/debug/bl31/bl_common.o
                                        0x901 (size before relaxing)
 .debug_str     0x0000000000003dda       0xa6 /home/lodge/Allwinner/Orangepi-H616/external/cache/sources/arm-trusted-firmware-sunxi-mainline/master/build/sun50i_h616/debug/bl31/tf_log.o
                                        0x3fb (size before relaxing)
 .debug_str     0x0000000000003e80      0x116 /home/lodge/Allwinner/Orangepi-H616/external/cache/sources/arm-trusted-firmware-sunxi-mainline/master/build/sun50i_h616/debug/bl31/multi_console.o
                                        0x4a5 (size before relaxing)
 .debug_str     0x0000000000003f96      0x195 /home/lodge/Allwinner/Orangepi-H616/external/cache/sources/arm-trusted-firmware-sunxi-mainline/master/build/sun50i_h616/debug/bl31/plat_bl_common.o
                                        0x587 (size before relaxing)
 .debug_str     0x000000000000412b       0x2e /home/lodge/Allwinner/Orangepi-H616/external/cache/sources/arm-trusted-firmware-sunxi-mainline/master/build/sun50i_h616/debug/bl31/plat_log_common.o
                                        0x37d (size before relaxing)
 .debug_str     0x0000000000004159       0x7f /home/lodge/Allwinner/Orangepi-H616/external/cache/sources/arm-trusted-firmware-sunxi-mainline/master/build/sun50i_h616/debug/bl31/plat_common.o
                                        0x48e (size before relaxing)
 .debug_str     0x00000000000041d8      0x31b /home/lodge/Allwinner/Orangepi-H616/external/cache/sources/arm-trusted-firmware-sunxi-mainline/master/build/sun50i_h616/debug/bl31/xlat_tables_arch.o
                                        0x724 (size before relaxing)
 .debug_str     0x00000000000044f3      0x1d5 /home/lodge/Allwinner/Orangepi-H616/external/cache/sources/arm-trusted-firmware-sunxi-mainline/master/build/sun50i_h616/debug/bl31/xlat_tables_context.o
                                        0x68f (size before relaxing)
 .debug_str     0x00000000000046c8      0x289 /home/lodge/Allwinner/Orangepi-H616/external/cache/sources/arm-trusted-firmware-sunxi-mainline/master/build/sun50i_h616/debug/bl31/xlat_tables_core.o
                                        0x81c (size before relaxing)
 .debug_str     0x0000000000004951      0x11e /home/lodge/Allwinner/Orangepi-H616/external/cache/sources/arm-trusted-firmware-sunxi-mainline/master/build/sun50i_h616/debug/bl31/xlat_tables_utils.o
                                        0x684 (size before relaxing)
 .debug_str     0x0000000000004a6f       0x94 /home/lodge/Allwinner/Orangepi-H616/external/cache/sources/arm-trusted-firmware-sunxi-mainline/master/build/sun50i_h616/debug/bl31/sunxi_common.o
                                        0x515 (size before relaxing)
 .debug_str     0x0000000000004b03       0x2d /home/lodge/Allwinner/Orangepi-H616/external/cache/sources/arm-trusted-firmware-sunxi-mainline/master/build/sun50i_h616/debug/bl31/bl31_entrypoint.o
                                         0x93 (size before relaxing)
 .debug_str     0x0000000000004b30       0x1f /home/lodge/Allwinner/Orangepi-H616/external/cache/sources/arm-trusted-firmware-sunxi-mainline/master/build/sun50i_h616/debug/bl31/crash_reporting.o
                                         0x93 (size before relaxing)
 .debug_str     0x0000000000004b4f       0x1b /home/lodge/Allwinner/Orangepi-H616/external/cache/sources/arm-trusted-firmware-sunxi-mainline/master/build/sun50i_h616/debug/bl31/ea_delegate.o
                                         0x8f (size before relaxing)
 .debug_str     0x0000000000004b6a       0x22 /home/lodge/Allwinner/Orangepi-H616/external/cache/sources/arm-trusted-firmware-sunxi-mainline/master/build/sun50i_h616/debug/bl31/runtime_exceptions.o
                                         0x96 (size before relaxing)
 .debug_str     0x0000000000004b8c       0x1e /home/lodge/Allwinner/Orangepi-H616/external/cache/sources/arm-trusted-firmware-sunxi-mainline/master/build/sun50i_h616/debug/bl31/cortex_a53.o
                                         0x92 (size before relaxing)
 .debug_str     0x0000000000004baa       0x1f /home/lodge/Allwinner/Orangepi-H616/external/cache/sources/arm-trusted-firmware-sunxi-mainline/master/build/sun50i_h616/debug/bl31/cpu_helpers.o
                                         0x93 (size before relaxing)
 .debug_str     0x0000000000004bc9       0x22 /home/lodge/Allwinner/Orangepi-H616/external/cache/sources/arm-trusted-firmware-sunxi-mainline/master/build/sun50i_h616/debug/bl31/context.o
                                         0x96 (size before relaxing)
 .debug_str     0x0000000000004beb       0x23 /home/lodge/Allwinner/Orangepi-H616/external/cache/sources/arm-trusted-firmware-sunxi-mainline/master/build/sun50i_h616/debug/bl31/cpu_data.o
                                         0x97 (size before relaxing)
 .debug_str     0x0000000000004c0e       0x27 /home/lodge/Allwinner/Orangepi-H616/external/cache/sources/arm-trusted-firmware-sunxi-mainline/master/build/sun50i_h616/debug/bl31/spinlock.o
                                         0x9b (size before relaxing)
 .debug_str     0x0000000000004c35       0x20 /home/lodge/Allwinner/Orangepi-H616/external/cache/sources/arm-trusted-firmware-sunxi-mainline/master/build/sun50i_h616/debug/bl31/psci_helpers.o
                                         0x94 (size before relaxing)
 .debug_str     0x0000000000004c55       0x28 /home/lodge/Allwinner/Orangepi-H616/external/cache/sources/arm-trusted-firmware-sunxi-mainline/master/build/sun50i_h616/debug/bl31/platform_mp_stack.o
                                         0x9c (size before relaxing)
 .debug_str     0x0000000000004c7d       0x17 /home/lodge/Allwinner/Orangepi-H616/external/cache/sources/arm-trusted-firmware-sunxi-mainline/master/build/sun50i_h616/debug/bl31/debug.o
                                         0x8b (size before relaxing)
 .debug_str     0x0000000000004c94       0x1c /home/lodge/Allwinner/Orangepi-H616/external/cache/sources/arm-trusted-firmware-sunxi-mainline/master/build/sun50i_h616/debug/bl31/cache_helpers.o
                                         0x90 (size before relaxing)
 .debug_str     0x0000000000004cb0       0x1b /home/lodge/Allwinner/Orangepi-H616/external/cache/sources/arm-trusted-firmware-sunxi-mainline/master/build/sun50i_h616/debug/bl31/misc_helpers.o
                                         0x8f (size before relaxing)
 .debug_str     0x0000000000004ccb       0x27 /home/lodge/Allwinner/Orangepi-H616/external/cache/sources/arm-trusted-firmware-sunxi-mainline/master/build/sun50i_h616/debug/bl31/platform_helpers.o
                                         0x9b (size before relaxing)
 .debug_str     0x0000000000004cf2       0x28 /home/lodge/Allwinner/Orangepi-H616/external/cache/sources/arm-trusted-firmware-sunxi-mainline/master/build/sun50i_h616/debug/bl31/16550_console.o
                                         0x9c (size before relaxing)
 .debug_str     0x0000000000004d1a       0x28 /home/lodge/Allwinner/Orangepi-H616/external/cache/sources/arm-trusted-firmware-sunxi-mainline/master/build/sun50i_h616/debug/bl31/enable_mmu.o
                                         0x9c (size before relaxing)
 .debug_str     0x0000000000004d42       0x25 /home/lodge/Allwinner/Orangepi-H616/external/cache/sources/arm-trusted-firmware-sunxi-mainline/master/build/sun50i_h616/debug/bl31/plat_helpers.o
                                         0x99 (size before relaxing)
 .debug_str     0x0000000000004d67      0x1dd /home/lodge/Allwinner/Orangepi-H616/external/cache/sources/arm-trusted-firmware-sunxi-mainline/master/build/sun50i_h616/debug/lib/libfdt.a(fdt.o)
                                        0x4fa (size before relaxing)
 .debug_str     0x0000000000004f44       0x5b /home/lodge/Allwinner/Orangepi-H616/external/cache/sources/arm-trusted-firmware-sunxi-mainline/master/build/sun50i_h616/debug/lib/libfdt.a(fdt_addresses.o)
                                        0x304 (size before relaxing)
 .debug_str     0x0000000000004f9f      0x3e3 /home/lodge/Allwinner/Orangepi-H616/external/cache/sources/arm-trusted-firmware-sunxi-mainline/master/build/sun50i_h616/debug/lib/libfdt.a(fdt_ro.o)
                                        0x8ed (size before relaxing)
 .debug_str     0x0000000000005382      0x348 /home/lodge/Allwinner/Orangepi-H616/external/cache/sources/arm-trusted-firmware-sunxi-mainline/master/build/sun50i_h616/debug/lib/libfdt.a(fdt_rw.o)
                                        0x8a0 (size before relaxing)
 .debug_str     0x00000000000056ca       0x2a /home/lodge/Allwinner/Orangepi-H616/external/cache/sources/arm-trusted-firmware-sunxi-mainline/master/build/sun50i_h616/debug/lib/libc.a(assert.o)
                                        0x348 (size before relaxing)
 .debug_str     0x00000000000056f4       0x12 /home/lodge/Allwinner/Orangepi-H616/external/cache/sources/arm-trusted-firmware-sunxi-mainline/master/build/sun50i_h616/debug/lib/libc.a(memchr.o)
                                        0x19e (size before relaxing)
 .debug_str     0x0000000000005706       0x12 /home/lodge/Allwinner/Orangepi-H616/external/cache/sources/arm-trusted-firmware-sunxi-mainline/master/build/sun50i_h616/debug/lib/libc.a(memcmp.o)
                                        0x19e (size before relaxing)
 .debug_str     0x0000000000005718       0x12 /home/lodge/Allwinner/Orangepi-H616/external/cache/sources/arm-trusted-firmware-sunxi-mainline/master/build/sun50i_h616/debug/lib/libc.a(memcpy.o)
                                        0x195 (size before relaxing)
 .debug_str     0x000000000000572a       0x13 /home/lodge/Allwinner/Orangepi-H616/external/cache/sources/arm-trusted-firmware-sunxi-mainline/master/build/sun50i_h616/debug/lib/libc.a(memmove.o)
                                        0x19e (size before relaxing)
 .debug_str     0x000000000000573d       0x1d /home/lodge/Allwinner/Orangepi-H616/external/cache/sources/arm-trusted-firmware-sunxi-mainline/master/build/sun50i_h616/debug/lib/libc.a(memset.o)
                                        0x240 (size before relaxing)
 .debug_str     0x000000000000575a       0x5c /home/lodge/Allwinner/Orangepi-H616/external/cache/sources/arm-trusted-firmware-sunxi-mainline/master/build/sun50i_h616/debug/lib/libc.a(printf.o)
                                        0x3ba (size before relaxing)
 .debug_str     0x00000000000057b6       0x13 /home/lodge/Allwinner/Orangepi-H616/external/cache/sources/arm-trusted-firmware-sunxi-mainline/master/build/sun50i_h616/debug/lib/libc.a(putchar.o)
                                        0x221 (size before relaxing)
 .debug_str     0x00000000000057c9       0x12 /home/lodge/Allwinner/Orangepi-H616/external/cache/sources/arm-trusted-firmware-sunxi-mainline/master/build/sun50i_h616/debug/lib/libc.a(strcmp.o)
                                        0x18e (size before relaxing)
 .debug_str     0x00000000000057db       0x12 /home/lodge/Allwinner/Orangepi-H616/external/cache/sources/arm-trusted-firmware-sunxi-mainline/master/build/sun50i_h616/debug/lib/libc.a(strlen.o)
                                        0x19c (size before relaxing)
 .debug_str     0x00000000000057ed       0x13 /home/lodge/Allwinner/Orangepi-H616/external/cache/sources/arm-trusted-firmware-sunxi-mainline/master/build/sun50i_h616/debug/lib/libc.a(strncmp.o)
                                        0x197 (size before relaxing)
 .debug_str     0x0000000000005800       0x13 /home/lodge/Allwinner/Orangepi-H616/external/cache/sources/arm-trusted-firmware-sunxi-mainline/master/build/sun50i_h616/debug/lib/libc.a(strrchr.o)
                                        0x195 (size before relaxing)

.comment        0x0000000000000000       0x5a
 .comment       0x0000000000000000       0x5a /home/lodge/Allwinner/Orangepi-H616/external/cache/sources/arm-trusted-firmware-sunxi-mainline/master/build/sun50i_h616/debug/bl31/build_message.o
                                         0x5b (size before relaxing)
 .comment       0x000000000000005a       0x5b /home/lodge/Allwinner/Orangepi-H616/external/cache/sources/arm-trusted-firmware-sunxi-mainline/master/build/sun50i_h616/debug/bl31/bl31_context_mgmt.o
 .comment       0x000000000000005a       0x5b /home/lodge/Allwinner/Orangepi-H616/external/cache/sources/arm-trusted-firmware-sunxi-mainline/master/build/sun50i_h616/debug/bl31/bl31_main.o
 .comment       0x000000000000005a       0x5b /home/lodge/Allwinner/Orangepi-H616/external/cache/sources/arm-trusted-firmware-sunxi-mainline/master/build/sun50i_h616/debug/bl31/interrupt_mgmt.o
 .comment       0x000000000000005a       0x5b /home/lodge/Allwinner/Orangepi-H616/external/cache/sources/arm-trusted-firmware-sunxi-mainline/master/build/sun50i_h616/debug/bl31/fdt_fixup.o
 .comment       0x000000000000005a       0x5b /home/lodge/Allwinner/Orangepi-H616/external/cache/sources/arm-trusted-firmware-sunxi-mainline/master/build/sun50i_h616/debug/bl31/runtime_svc.o
 .comment       0x000000000000005a       0x5b /home/lodge/Allwinner/Orangepi-H616/external/cache/sources/arm-trusted-firmware-sunxi-mainline/master/build/sun50i_h616/debug/bl31/axp805.o
 .comment       0x000000000000005a       0x5b /home/lodge/Allwinner/Orangepi-H616/external/cache/sources/arm-trusted-firmware-sunxi-mainline/master/build/sun50i_h616/debug/bl31/common.o
 .comment       0x000000000000005a       0x5b /home/lodge/Allwinner/Orangepi-H616/external/cache/sources/arm-trusted-firmware-sunxi-mainline/master/build/sun50i_h616/debug/bl31/sunxi_rsb.o
 .comment       0x000000000000005a       0x5b /home/lodge/Allwinner/Orangepi-H616/external/cache/sources/arm-trusted-firmware-sunxi-mainline/master/build/sun50i_h616/debug/bl31/gicdv2_helpers.o
 .comment       0x000000000000005a       0x5b /home/lodge/Allwinner/Orangepi-H616/external/cache/sources/arm-trusted-firmware-sunxi-mainline/master/build/sun50i_h616/debug/bl31/gicv2_helpers.o
 .comment       0x000000000000005a       0x5b /home/lodge/Allwinner/Orangepi-H616/external/cache/sources/arm-trusted-firmware-sunxi-mainline/master/build/sun50i_h616/debug/bl31/gicv2_main.o
 .comment       0x000000000000005a       0x5b /home/lodge/Allwinner/Orangepi-H616/external/cache/sources/arm-trusted-firmware-sunxi-mainline/master/build/sun50i_h616/debug/bl31/delay_timer.o
 .comment       0x000000000000005a       0x5b /home/lodge/Allwinner/Orangepi-H616/external/cache/sources/arm-trusted-firmware-sunxi-mainline/master/build/sun50i_h616/debug/bl31/generic_delay_timer.o
 .comment       0x000000000000005a       0x5b /home/lodge/Allwinner/Orangepi-H616/external/cache/sources/arm-trusted-firmware-sunxi-mainline/master/build/sun50i_h616/debug/bl31/errata_report.o
 .comment       0x000000000000005a       0x5b /home/lodge/Allwinner/Orangepi-H616/external/cache/sources/arm-trusted-firmware-sunxi-mainline/master/build/sun50i_h616/debug/bl31/context_mgmt.o
 .comment       0x000000000000005a       0x5b /home/lodge/Allwinner/Orangepi-H616/external/cache/sources/arm-trusted-firmware-sunxi-mainline/master/build/sun50i_h616/debug/bl31/cpu_data_array.o
 .comment       0x000000000000005a       0x5b /home/lodge/Allwinner/Orangepi-H616/external/cache/sources/arm-trusted-firmware-sunxi-mainline/master/build/sun50i_h616/debug/bl31/bakery_lock_coherent.o
 .comment       0x000000000000005a       0x5b /home/lodge/Allwinner/Orangepi-H616/external/cache/sources/arm-trusted-firmware-sunxi-mainline/master/build/sun50i_h616/debug/bl31/psci_common.o
 .comment       0x000000000000005a       0x5b /home/lodge/Allwinner/Orangepi-H616/external/cache/sources/arm-trusted-firmware-sunxi-mainline/master/build/sun50i_h616/debug/bl31/psci_main.o
 .comment       0x000000000000005a       0x5b /home/lodge/Allwinner/Orangepi-H616/external/cache/sources/arm-trusted-firmware-sunxi-mainline/master/build/sun50i_h616/debug/bl31/psci_mem_protect.o
 .comment       0x000000000000005a       0x5b /home/lodge/Allwinner/Orangepi-H616/external/cache/sources/arm-trusted-firmware-sunxi-mainline/master/build/sun50i_h616/debug/bl31/psci_off.o
 .comment       0x000000000000005a       0x5b /home/lodge/Allwinner/Orangepi-H616/external/cache/sources/arm-trusted-firmware-sunxi-mainline/master/build/sun50i_h616/debug/bl31/psci_on.o
 .comment       0x000000000000005a       0x5b /home/lodge/Allwinner/Orangepi-H616/external/cache/sources/arm-trusted-firmware-sunxi-mainline/master/build/sun50i_h616/debug/bl31/psci_setup.o
 .comment       0x000000000000005a       0x5b /home/lodge/Allwinner/Orangepi-H616/external/cache/sources/arm-trusted-firmware-sunxi-mainline/master/build/sun50i_h616/debug/bl31/psci_suspend.o
 .comment       0x000000000000005a       0x5b /home/lodge/Allwinner/Orangepi-H616/external/cache/sources/arm-trusted-firmware-sunxi-mainline/master/build/sun50i_h616/debug/bl31/psci_system_off.o
 .comment       0x000000000000005a       0x5b /home/lodge/Allwinner/Orangepi-H616/external/cache/sources/arm-trusted-firmware-sunxi-mainline/master/build/sun50i_h616/debug/bl31/sunxi_bl31_setup.o
 .comment       0x000000000000005a       0x5b /home/lodge/Allwinner/Orangepi-H616/external/cache/sources/arm-trusted-firmware-sunxi-mainline/master/build/sun50i_h616/debug/bl31/sunxi_cpu_ops.o
 .comment       0x000000000000005a       0x5b /home/lodge/Allwinner/Orangepi-H616/external/cache/sources/arm-trusted-firmware-sunxi-mainline/master/build/sun50i_h616/debug/bl31/sunxi_native_pm.o
 .comment       0x000000000000005a       0x5b /home/lodge/Allwinner/Orangepi-H616/external/cache/sources/arm-trusted-firmware-sunxi-mainline/master/build/sun50i_h616/debug/bl31/sunxi_pm.o
 .comment       0x000000000000005a       0x5b /home/lodge/Allwinner/Orangepi-H616/external/cache/sources/arm-trusted-firmware-sunxi-mainline/master/build/sun50i_h616/debug/bl31/sunxi_security.o
 .comment       0x000000000000005a       0x5b /home/lodge/Allwinner/Orangepi-H616/external/cache/sources/arm-trusted-firmware-sunxi-mainline/master/build/sun50i_h616/debug/bl31/sunxi_topology.o
 .comment       0x000000000000005a       0x5b /home/lodge/Allwinner/Orangepi-H616/external/cache/sources/arm-trusted-firmware-sunxi-mainline/master/build/sun50i_h616/debug/bl31/prepare_dtb.o
 .comment       0x000000000000005a       0x5b /home/lodge/Allwinner/Orangepi-H616/external/cache/sources/arm-trusted-firmware-sunxi-mainline/master/build/sun50i_h616/debug/bl31/sunxi_power.o
 .comment       0x000000000000005a       0x5b /home/lodge/Allwinner/Orangepi-H616/external/cache/sources/arm-trusted-firmware-sunxi-mainline/master/build/sun50i_h616/debug/bl31/plat_gicv2.o
 .comment       0x000000000000005a       0x5b /home/lodge/Allwinner/Orangepi-H616/external/cache/sources/arm-trusted-firmware-sunxi-mainline/master/build/sun50i_h616/debug/bl31/plat_psci_common.o
 .comment       0x000000000000005a       0x5b /home/lodge/Allwinner/Orangepi-H616/external/cache/sources/arm-trusted-firmware-sunxi-mainline/master/build/sun50i_h616/debug/bl31/arm_arch_svc_setup.o
 .comment       0x000000000000005a       0x5b /home/lodge/Allwinner/Orangepi-H616/external/cache/sources/arm-trusted-firmware-sunxi-mainline/master/build/sun50i_h616/debug/bl31/std_svc_setup.o
 .comment       0x000000000000005a       0x5b /home/lodge/Allwinner/Orangepi-H616/external/cache/sources/arm-trusted-firmware-sunxi-mainline/master/build/sun50i_h616/debug/bl31/bl_common.o
 .comment       0x000000000000005a       0x5b /home/lodge/Allwinner/Orangepi-H616/external/cache/sources/arm-trusted-firmware-sunxi-mainline/master/build/sun50i_h616/debug/bl31/tf_log.o
 .comment       0x000000000000005a       0x5b /home/lodge/Allwinner/Orangepi-H616/external/cache/sources/arm-trusted-firmware-sunxi-mainline/master/build/sun50i_h616/debug/bl31/multi_console.o
 .comment       0x000000000000005a       0x5b /home/lodge/Allwinner/Orangepi-H616/external/cache/sources/arm-trusted-firmware-sunxi-mainline/master/build/sun50i_h616/debug/bl31/plat_bl_common.o
 .comment       0x000000000000005a       0x5b /home/lodge/Allwinner/Orangepi-H616/external/cache/sources/arm-trusted-firmware-sunxi-mainline/master/build/sun50i_h616/debug/bl31/plat_log_common.o
 .comment       0x000000000000005a       0x5b /home/lodge/Allwinner/Orangepi-H616/external/cache/sources/arm-trusted-firmware-sunxi-mainline/master/build/sun50i_h616/debug/bl31/plat_common.o
 .comment       0x000000000000005a       0x5b /home/lodge/Allwinner/Orangepi-H616/external/cache/sources/arm-trusted-firmware-sunxi-mainline/master/build/sun50i_h616/debug/bl31/xlat_tables_arch.o
 .comment       0x000000000000005a       0x5b /home/lodge/Allwinner/Orangepi-H616/external/cache/sources/arm-trusted-firmware-sunxi-mainline/master/build/sun50i_h616/debug/bl31/xlat_tables_context.o
 .comment       0x000000000000005a       0x5b /home/lodge/Allwinner/Orangepi-H616/external/cache/sources/arm-trusted-firmware-sunxi-mainline/master/build/sun50i_h616/debug/bl31/xlat_tables_core.o
 .comment       0x000000000000005a       0x5b /home/lodge/Allwinner/Orangepi-H616/external/cache/sources/arm-trusted-firmware-sunxi-mainline/master/build/sun50i_h616/debug/bl31/xlat_tables_utils.o
 .comment       0x000000000000005a       0x5b /home/lodge/Allwinner/Orangepi-H616/external/cache/sources/arm-trusted-firmware-sunxi-mainline/master/build/sun50i_h616/debug/bl31/sunxi_common.o
 .comment       0x000000000000005a       0x5b /home/lodge/Allwinner/Orangepi-H616/external/cache/sources/arm-trusted-firmware-sunxi-mainline/master/build/sun50i_h616/debug/lib/libfdt.a(fdt.o)
 .comment       0x000000000000005a       0x5b /home/lodge/Allwinner/Orangepi-H616/external/cache/sources/arm-trusted-firmware-sunxi-mainline/master/build/sun50i_h616/debug/lib/libfdt.a(fdt_addresses.o)
 .comment       0x000000000000005a       0x5b /home/lodge/Allwinner/Orangepi-H616/external/cache/sources/arm-trusted-firmware-sunxi-mainline/master/build/sun50i_h616/debug/lib/libfdt.a(fdt_ro.o)
 .comment       0x000000000000005a       0x5b /home/lodge/Allwinner/Orangepi-H616/external/cache/sources/arm-trusted-firmware-sunxi-mainline/master/build/sun50i_h616/debug/lib/libfdt.a(fdt_rw.o)
 .comment       0x000000000000005a       0x5b /home/lodge/Allwinner/Orangepi-H616/external/cache/sources/arm-trusted-firmware-sunxi-mainline/master/build/sun50i_h616/debug/lib/libc.a(assert.o)
 .comment       0x000000000000005a       0x5b /home/lodge/Allwinner/Orangepi-H616/external/cache/sources/arm-trusted-firmware-sunxi-mainline/master/build/sun50i_h616/debug/lib/libc.a(memchr.o)
 .comment       0x000000000000005a       0x5b /home/lodge/Allwinner/Orangepi-H616/external/cache/sources/arm-trusted-firmware-sunxi-mainline/master/build/sun50i_h616/debug/lib/libc.a(memcmp.o)
 .comment       0x000000000000005a       0x5b /home/lodge/Allwinner/Orangepi-H616/external/cache/sources/arm-trusted-firmware-sunxi-mainline/master/build/sun50i_h616/debug/lib/libc.a(memcpy.o)
 .comment       0x000000000000005a       0x5b /home/lodge/Allwinner/Orangepi-H616/external/cache/sources/arm-trusted-firmware-sunxi-mainline/master/build/sun50i_h616/debug/lib/libc.a(memmove.o)
 .comment       0x000000000000005a       0x5b /home/lodge/Allwinner/Orangepi-H616/external/cache/sources/arm-trusted-firmware-sunxi-mainline/master/build/sun50i_h616/debug/lib/libc.a(memset.o)
 .comment       0x000000000000005a       0x5b /home/lodge/Allwinner/Orangepi-H616/external/cache/sources/arm-trusted-firmware-sunxi-mainline/master/build/sun50i_h616/debug/lib/libc.a(printf.o)
 .comment       0x000000000000005a       0x5b /home/lodge/Allwinner/Orangepi-H616/external/cache/sources/arm-trusted-firmware-sunxi-mainline/master/build/sun50i_h616/debug/lib/libc.a(putchar.o)
 .comment       0x000000000000005a       0x5b /home/lodge/Allwinner/Orangepi-H616/external/cache/sources/arm-trusted-firmware-sunxi-mainline/master/build/sun50i_h616/debug/lib/libc.a(strcmp.o)
 .comment       0x000000000000005a       0x5b /home/lodge/Allwinner/Orangepi-H616/external/cache/sources/arm-trusted-firmware-sunxi-mainline/master/build/sun50i_h616/debug/lib/libc.a(strlen.o)
 .comment       0x000000000000005a       0x5b /home/lodge/Allwinner/Orangepi-H616/external/cache/sources/arm-trusted-firmware-sunxi-mainline/master/build/sun50i_h616/debug/lib/libc.a(strncmp.o)
 .comment       0x000000000000005a       0x5b /home/lodge/Allwinner/Orangepi-H616/external/cache/sources/arm-trusted-firmware-sunxi-mainline/master/build/sun50i_h616/debug/lib/libc.a(strrchr.o)

.note.GNU-stack
                0x0000000000000000        0x0
 .note.GNU-stack
                0x0000000000000000        0x0 /home/lodge/Allwinner/Orangepi-H616/external/cache/sources/arm-trusted-firmware-sunxi-mainline/master/build/sun50i_h616/debug/bl31/build_message.o
 .note.GNU-stack
                0x0000000000000000        0x0 /home/lodge/Allwinner/Orangepi-H616/external/cache/sources/arm-trusted-firmware-sunxi-mainline/master/build/sun50i_h616/debug/bl31/bl31_context_mgmt.o
 .note.GNU-stack
                0x0000000000000000        0x0 /home/lodge/Allwinner/Orangepi-H616/external/cache/sources/arm-trusted-firmware-sunxi-mainline/master/build/sun50i_h616/debug/bl31/bl31_main.o
 .note.GNU-stack
                0x0000000000000000        0x0 /home/lodge/Allwinner/Orangepi-H616/external/cache/sources/arm-trusted-firmware-sunxi-mainline/master/build/sun50i_h616/debug/bl31/interrupt_mgmt.o
 .note.GNU-stack
                0x0000000000000000        0x0 /home/lodge/Allwinner/Orangepi-H616/external/cache/sources/arm-trusted-firmware-sunxi-mainline/master/build/sun50i_h616/debug/bl31/fdt_fixup.o
 .note.GNU-stack
                0x0000000000000000        0x0 /home/lodge/Allwinner/Orangepi-H616/external/cache/sources/arm-trusted-firmware-sunxi-mainline/master/build/sun50i_h616/debug/bl31/runtime_svc.o
 .note.GNU-stack
                0x0000000000000000        0x0 /home/lodge/Allwinner/Orangepi-H616/external/cache/sources/arm-trusted-firmware-sunxi-mainline/master/build/sun50i_h616/debug/bl31/axp805.o
 .note.GNU-stack
                0x0000000000000000        0x0 /home/lodge/Allwinner/Orangepi-H616/external/cache/sources/arm-trusted-firmware-sunxi-mainline/master/build/sun50i_h616/debug/bl31/common.o
 .note.GNU-stack
                0x0000000000000000        0x0 /home/lodge/Allwinner/Orangepi-H616/external/cache/sources/arm-trusted-firmware-sunxi-mainline/master/build/sun50i_h616/debug/bl31/sunxi_rsb.o
 .note.GNU-stack
                0x0000000000000000        0x0 /home/lodge/Allwinner/Orangepi-H616/external/cache/sources/arm-trusted-firmware-sunxi-mainline/master/build/sun50i_h616/debug/bl31/gicdv2_helpers.o
 .note.GNU-stack
                0x0000000000000000        0x0 /home/lodge/Allwinner/Orangepi-H616/external/cache/sources/arm-trusted-firmware-sunxi-mainline/master/build/sun50i_h616/debug/bl31/gicv2_helpers.o
 .note.GNU-stack
                0x0000000000000000        0x0 /home/lodge/Allwinner/Orangepi-H616/external/cache/sources/arm-trusted-firmware-sunxi-mainline/master/build/sun50i_h616/debug/bl31/gicv2_main.o
 .note.GNU-stack
                0x0000000000000000        0x0 /home/lodge/Allwinner/Orangepi-H616/external/cache/sources/arm-trusted-firmware-sunxi-mainline/master/build/sun50i_h616/debug/bl31/delay_timer.o
 .note.GNU-stack
                0x0000000000000000        0x0 /home/lodge/Allwinner/Orangepi-H616/external/cache/sources/arm-trusted-firmware-sunxi-mainline/master/build/sun50i_h616/debug/bl31/generic_delay_timer.o
 .note.GNU-stack
                0x0000000000000000        0x0 /home/lodge/Allwinner/Orangepi-H616/external/cache/sources/arm-trusted-firmware-sunxi-mainline/master/build/sun50i_h616/debug/bl31/errata_report.o
 .note.GNU-stack
                0x0000000000000000        0x0 /home/lodge/Allwinner/Orangepi-H616/external/cache/sources/arm-trusted-firmware-sunxi-mainline/master/build/sun50i_h616/debug/bl31/context_mgmt.o
 .note.GNU-stack
                0x0000000000000000        0x0 /home/lodge/Allwinner/Orangepi-H616/external/cache/sources/arm-trusted-firmware-sunxi-mainline/master/build/sun50i_h616/debug/bl31/cpu_data_array.o
 .note.GNU-stack
                0x0000000000000000        0x0 /home/lodge/Allwinner/Orangepi-H616/external/cache/sources/arm-trusted-firmware-sunxi-mainline/master/build/sun50i_h616/debug/bl31/bakery_lock_coherent.o
 .note.GNU-stack
                0x0000000000000000        0x0 /home/lodge/Allwinner/Orangepi-H616/external/cache/sources/arm-trusted-firmware-sunxi-mainline/master/build/sun50i_h616/debug/bl31/psci_common.o
 .note.GNU-stack
                0x0000000000000000        0x0 /home/lodge/Allwinner/Orangepi-H616/external/cache/sources/arm-trusted-firmware-sunxi-mainline/master/build/sun50i_h616/debug/bl31/psci_main.o
 .note.GNU-stack
                0x0000000000000000        0x0 /home/lodge/Allwinner/Orangepi-H616/external/cache/sources/arm-trusted-firmware-sunxi-mainline/master/build/sun50i_h616/debug/bl31/psci_mem_protect.o
 .note.GNU-stack
                0x0000000000000000        0x0 /home/lodge/Allwinner/Orangepi-H616/external/cache/sources/arm-trusted-firmware-sunxi-mainline/master/build/sun50i_h616/debug/bl31/psci_off.o
 .note.GNU-stack
                0x0000000000000000        0x0 /home/lodge/Allwinner/Orangepi-H616/external/cache/sources/arm-trusted-firmware-sunxi-mainline/master/build/sun50i_h616/debug/bl31/psci_on.o
 .note.GNU-stack
                0x0000000000000000        0x0 /home/lodge/Allwinner/Orangepi-H616/external/cache/sources/arm-trusted-firmware-sunxi-mainline/master/build/sun50i_h616/debug/bl31/psci_setup.o
 .note.GNU-stack
                0x0000000000000000        0x0 /home/lodge/Allwinner/Orangepi-H616/external/cache/sources/arm-trusted-firmware-sunxi-mainline/master/build/sun50i_h616/debug/bl31/psci_suspend.o
 .note.GNU-stack
                0x0000000000000000        0x0 /home/lodge/Allwinner/Orangepi-H616/external/cache/sources/arm-trusted-firmware-sunxi-mainline/master/build/sun50i_h616/debug/bl31/psci_system_off.o
 .note.GNU-stack
                0x0000000000000000        0x0 /home/lodge/Allwinner/Orangepi-H616/external/cache/sources/arm-trusted-firmware-sunxi-mainline/master/build/sun50i_h616/debug/bl31/sunxi_bl31_setup.o
 .note.GNU-stack
                0x0000000000000000        0x0 /home/lodge/Allwinner/Orangepi-H616/external/cache/sources/arm-trusted-firmware-sunxi-mainline/master/build/sun50i_h616/debug/bl31/sunxi_cpu_ops.o
 .note.GNU-stack
                0x0000000000000000        0x0 /home/lodge/Allwinner/Orangepi-H616/external/cache/sources/arm-trusted-firmware-sunxi-mainline/master/build/sun50i_h616/debug/bl31/sunxi_native_pm.o
 .note.GNU-stack
                0x0000000000000000        0x0 /home/lodge/Allwinner/Orangepi-H616/external/cache/sources/arm-trusted-firmware-sunxi-mainline/master/build/sun50i_h616/debug/bl31/sunxi_pm.o
 .note.GNU-stack
                0x0000000000000000        0x0 /home/lodge/Allwinner/Orangepi-H616/external/cache/sources/arm-trusted-firmware-sunxi-mainline/master/build/sun50i_h616/debug/bl31/sunxi_security.o
 .note.GNU-stack
                0x0000000000000000        0x0 /home/lodge/Allwinner/Orangepi-H616/external/cache/sources/arm-trusted-firmware-sunxi-mainline/master/build/sun50i_h616/debug/bl31/sunxi_topology.o
 .note.GNU-stack
                0x0000000000000000        0x0 /home/lodge/Allwinner/Orangepi-H616/external/cache/sources/arm-trusted-firmware-sunxi-mainline/master/build/sun50i_h616/debug/bl31/prepare_dtb.o
 .note.GNU-stack
                0x0000000000000000        0x0 /home/lodge/Allwinner/Orangepi-H616/external/cache/sources/arm-trusted-firmware-sunxi-mainline/master/build/sun50i_h616/debug/bl31/sunxi_power.o
 .note.GNU-stack
                0x0000000000000000        0x0 /home/lodge/Allwinner/Orangepi-H616/external/cache/sources/arm-trusted-firmware-sunxi-mainline/master/build/sun50i_h616/debug/bl31/plat_gicv2.o
 .note.GNU-stack
                0x0000000000000000        0x0 /home/lodge/Allwinner/Orangepi-H616/external/cache/sources/arm-trusted-firmware-sunxi-mainline/master/build/sun50i_h616/debug/bl31/plat_psci_common.o
 .note.GNU-stack
                0x0000000000000000        0x0 /home/lodge/Allwinner/Orangepi-H616/external/cache/sources/arm-trusted-firmware-sunxi-mainline/master/build/sun50i_h616/debug/bl31/arm_arch_svc_setup.o
 .note.GNU-stack
                0x0000000000000000        0x0 /home/lodge/Allwinner/Orangepi-H616/external/cache/sources/arm-trusted-firmware-sunxi-mainline/master/build/sun50i_h616/debug/bl31/std_svc_setup.o
 .note.GNU-stack
                0x0000000000000000        0x0 /home/lodge/Allwinner/Orangepi-H616/external/cache/sources/arm-trusted-firmware-sunxi-mainline/master/build/sun50i_h616/debug/bl31/bl_common.o
 .note.GNU-stack
                0x0000000000000000        0x0 /home/lodge/Allwinner/Orangepi-H616/external/cache/sources/arm-trusted-firmware-sunxi-mainline/master/build/sun50i_h616/debug/bl31/tf_log.o
 .note.GNU-stack
                0x0000000000000000        0x0 /home/lodge/Allwinner/Orangepi-H616/external/cache/sources/arm-trusted-firmware-sunxi-mainline/master/build/sun50i_h616/debug/bl31/multi_console.o
 .note.GNU-stack
                0x0000000000000000        0x0 /home/lodge/Allwinner/Orangepi-H616/external/cache/sources/arm-trusted-firmware-sunxi-mainline/master/build/sun50i_h616/debug/bl31/plat_bl_common.o
 .note.GNU-stack
                0x0000000000000000        0x0 /home/lodge/Allwinner/Orangepi-H616/external/cache/sources/arm-trusted-firmware-sunxi-mainline/master/build/sun50i_h616/debug/bl31/plat_log_common.o
 .note.GNU-stack
                0x0000000000000000        0x0 /home/lodge/Allwinner/Orangepi-H616/external/cache/sources/arm-trusted-firmware-sunxi-mainline/master/build/sun50i_h616/debug/bl31/plat_common.o
 .note.GNU-stack
                0x0000000000000000        0x0 /home/lodge/Allwinner/Orangepi-H616/external/cache/sources/arm-trusted-firmware-sunxi-mainline/master/build/sun50i_h616/debug/bl31/xlat_tables_arch.o
 .note.GNU-stack
                0x0000000000000000        0x0 /home/lodge/Allwinner/Orangepi-H616/external/cache/sources/arm-trusted-firmware-sunxi-mainline/master/build/sun50i_h616/debug/bl31/xlat_tables_context.o
 .note.GNU-stack
                0x0000000000000000        0x0 /home/lodge/Allwinner/Orangepi-H616/external/cache/sources/arm-trusted-firmware-sunxi-mainline/master/build/sun50i_h616/debug/bl31/xlat_tables_core.o
 .note.GNU-stack
                0x0000000000000000        0x0 /home/lodge/Allwinner/Orangepi-H616/external/cache/sources/arm-trusted-firmware-sunxi-mainline/master/build/sun50i_h616/debug/bl31/xlat_tables_utils.o
 .note.GNU-stack
                0x0000000000000000        0x0 /home/lodge/Allwinner/Orangepi-H616/external/cache/sources/arm-trusted-firmware-sunxi-mainline/master/build/sun50i_h616/debug/bl31/sunxi_common.o
 .note.GNU-stack
                0x0000000000000000        0x0 /home/lodge/Allwinner/Orangepi-H616/external/cache/sources/arm-trusted-firmware-sunxi-mainline/master/build/sun50i_h616/debug/lib/libfdt.a(fdt.o)
 .note.GNU-stack
                0x0000000000000000        0x0 /home/lodge/Allwinner/Orangepi-H616/external/cache/sources/arm-trusted-firmware-sunxi-mainline/master/build/sun50i_h616/debug/lib/libfdt.a(fdt_addresses.o)
 .note.GNU-stack
                0x0000000000000000        0x0 /home/lodge/Allwinner/Orangepi-H616/external/cache/sources/arm-trusted-firmware-sunxi-mainline/master/build/sun50i_h616/debug/lib/libfdt.a(fdt_ro.o)
 .note.GNU-stack
                0x0000000000000000        0x0 /home/lodge/Allwinner/Orangepi-H616/external/cache/sources/arm-trusted-firmware-sunxi-mainline/master/build/sun50i_h616/debug/lib/libfdt.a(fdt_rw.o)
 .note.GNU-stack
                0x0000000000000000        0x0 /home/lodge/Allwinner/Orangepi-H616/external/cache/sources/arm-trusted-firmware-sunxi-mainline/master/build/sun50i_h616/debug/lib/libc.a(assert.o)
 .note.GNU-stack
                0x0000000000000000        0x0 /home/lodge/Allwinner/Orangepi-H616/external/cache/sources/arm-trusted-firmware-sunxi-mainline/master/build/sun50i_h616/debug/lib/libc.a(memchr.o)
 .note.GNU-stack
                0x0000000000000000        0x0 /home/lodge/Allwinner/Orangepi-H616/external/cache/sources/arm-trusted-firmware-sunxi-mainline/master/build/sun50i_h616/debug/lib/libc.a(memcmp.o)
 .note.GNU-stack
                0x0000000000000000        0x0 /home/lodge/Allwinner/Orangepi-H616/external/cache/sources/arm-trusted-firmware-sunxi-mainline/master/build/sun50i_h616/debug/lib/libc.a(memcpy.o)
 .note.GNU-stack
                0x0000000000000000        0x0 /home/lodge/Allwinner/Orangepi-H616/external/cache/sources/arm-trusted-firmware-sunxi-mainline/master/build/sun50i_h616/debug/lib/libc.a(memmove.o)
 .note.GNU-stack
                0x0000000000000000        0x0 /home/lodge/Allwinner/Orangepi-H616/external/cache/sources/arm-trusted-firmware-sunxi-mainline/master/build/sun50i_h616/debug/lib/libc.a(memset.o)
 .note.GNU-stack
                0x0000000000000000        0x0 /home/lodge/Allwinner/Orangepi-H616/external/cache/sources/arm-trusted-firmware-sunxi-mainline/master/build/sun50i_h616/debug/lib/libc.a(printf.o)
 .note.GNU-stack
                0x0000000000000000        0x0 /home/lodge/Allwinner/Orangepi-H616/external/cache/sources/arm-trusted-firmware-sunxi-mainline/master/build/sun50i_h616/debug/lib/libc.a(putchar.o)
 .note.GNU-stack
                0x0000000000000000        0x0 /home/lodge/Allwinner/Orangepi-H616/external/cache/sources/arm-trusted-firmware-sunxi-mainline/master/build/sun50i_h616/debug/lib/libc.a(strcmp.o)
 .note.GNU-stack
                0x0000000000000000        0x0 /home/lodge/Allwinner/Orangepi-H616/external/cache/sources/arm-trusted-firmware-sunxi-mainline/master/build/sun50i_h616/debug/lib/libc.a(strlen.o)
 .note.GNU-stack
                0x0000000000000000        0x0 /home/lodge/Allwinner/Orangepi-H616/external/cache/sources/arm-trusted-firmware-sunxi-mainline/master/build/sun50i_h616/debug/lib/libc.a(strncmp.o)
 .note.GNU-stack
                0x0000000000000000        0x0 /home/lodge/Allwinner/Orangepi-H616/external/cache/sources/arm-trusted-firmware-sunxi-mainline/master/build/sun50i_h616/debug/lib/libc.a(strrchr.o)

.debug_loc      0x0000000000000000    0x27b28
 .debug_loc     0x0000000000000000      0x3d3 /home/lodge/Allwinner/Orangepi-H616/external/cache/sources/arm-trusted-firmware-sunxi-mainline/master/build/sun50i_h616/debug/bl31/bl31_context_mgmt.o
 .debug_loc     0x00000000000003d3      0x2cf /home/lodge/Allwinner/Orangepi-H616/external/cache/sources/arm-trusted-firmware-sunxi-mainline/master/build/sun50i_h616/debug/bl31/bl31_main.o
 .debug_loc     0x00000000000006a2      0xae6 /home/lodge/Allwinner/Orangepi-H616/external/cache/sources/arm-trusted-firmware-sunxi-mainline/master/build/sun50i_h616/debug/bl31/interrupt_mgmt.o
 .debug_loc     0x0000000000001188     0x1554 /home/lodge/Allwinner/Orangepi-H616/external/cache/sources/arm-trusted-firmware-sunxi-mainline/master/build/sun50i_h616/debug/bl31/fdt_fixup.o
 .debug_loc     0x00000000000026dc      0x6e6 /home/lodge/Allwinner/Orangepi-H616/external/cache/sources/arm-trusted-firmware-sunxi-mainline/master/build/sun50i_h616/debug/bl31/runtime_svc.o
 .debug_loc     0x0000000000002dc2      0x8ff /home/lodge/Allwinner/Orangepi-H616/external/cache/sources/arm-trusted-firmware-sunxi-mainline/master/build/sun50i_h616/debug/bl31/common.o
 .debug_loc     0x00000000000036c1      0xaf0 /home/lodge/Allwinner/Orangepi-H616/external/cache/sources/arm-trusted-firmware-sunxi-mainline/master/build/sun50i_h616/debug/bl31/sunxi_rsb.o
 .debug_loc     0x00000000000041b1     0x290e /home/lodge/Allwinner/Orangepi-H616/external/cache/sources/arm-trusted-firmware-sunxi-mainline/master/build/sun50i_h616/debug/bl31/gicdv2_helpers.o
 .debug_loc     0x0000000000006abf     0x11d5 /home/lodge/Allwinner/Orangepi-H616/external/cache/sources/arm-trusted-firmware-sunxi-mainline/master/build/sun50i_h616/debug/bl31/gicv2_helpers.o
 .debug_loc     0x0000000000007c94     0x1aad /home/lodge/Allwinner/Orangepi-H616/external/cache/sources/arm-trusted-firmware-sunxi-mainline/master/build/sun50i_h616/debug/bl31/gicv2_main.o
 .debug_loc     0x0000000000009741      0x20a /home/lodge/Allwinner/Orangepi-H616/external/cache/sources/arm-trusted-firmware-sunxi-mainline/master/build/sun50i_h616/debug/bl31/delay_timer.o
 .debug_loc     0x000000000000994b      0x12d /home/lodge/Allwinner/Orangepi-H616/external/cache/sources/arm-trusted-firmware-sunxi-mainline/master/build/sun50i_h616/debug/bl31/generic_delay_timer.o
 .debug_loc     0x0000000000009a78      0x34e /home/lodge/Allwinner/Orangepi-H616/external/cache/sources/arm-trusted-firmware-sunxi-mainline/master/build/sun50i_h616/debug/bl31/errata_report.o
 .debug_loc     0x0000000000009dc6     0x1427 /home/lodge/Allwinner/Orangepi-H616/external/cache/sources/arm-trusted-firmware-sunxi-mainline/master/build/sun50i_h616/debug/bl31/context_mgmt.o
 .debug_loc     0x000000000000b1ed      0x4c6 /home/lodge/Allwinner/Orangepi-H616/external/cache/sources/arm-trusted-firmware-sunxi-mainline/master/build/sun50i_h616/debug/bl31/bakery_lock_coherent.o
 .debug_loc     0x000000000000b6b3     0x2580 /home/lodge/Allwinner/Orangepi-H616/external/cache/sources/arm-trusted-firmware-sunxi-mainline/master/build/sun50i_h616/debug/bl31/psci_common.o
 .debug_loc     0x000000000000dc33     0x24e7 /home/lodge/Allwinner/Orangepi-H616/external/cache/sources/arm-trusted-firmware-sunxi-mainline/master/build/sun50i_h616/debug/bl31/psci_main.o
 .debug_loc     0x000000000001011a      0x1ba /home/lodge/Allwinner/Orangepi-H616/external/cache/sources/arm-trusted-firmware-sunxi-mainline/master/build/sun50i_h616/debug/bl31/psci_mem_protect.o
 .debug_loc     0x00000000000102d4      0x22f /home/lodge/Allwinner/Orangepi-H616/external/cache/sources/arm-trusted-firmware-sunxi-mainline/master/build/sun50i_h616/debug/bl31/psci_off.o
 .debug_loc     0x0000000000010503      0x43e /home/lodge/Allwinner/Orangepi-H616/external/cache/sources/arm-trusted-firmware-sunxi-mainline/master/build/sun50i_h616/debug/bl31/psci_on.o
 .debug_loc     0x0000000000010941      0x7c7 /home/lodge/Allwinner/Orangepi-H616/external/cache/sources/arm-trusted-firmware-sunxi-mainline/master/build/sun50i_h616/debug/bl31/psci_setup.o
 .debug_loc     0x0000000000011108      0x647 /home/lodge/Allwinner/Orangepi-H616/external/cache/sources/arm-trusted-firmware-sunxi-mainline/master/build/sun50i_h616/debug/bl31/psci_suspend.o
 .debug_loc     0x000000000001174f      0x122 /home/lodge/Allwinner/Orangepi-H616/external/cache/sources/arm-trusted-firmware-sunxi-mainline/master/build/sun50i_h616/debug/bl31/psci_system_off.o
 .debug_loc     0x0000000000011871      0x364 /home/lodge/Allwinner/Orangepi-H616/external/cache/sources/arm-trusted-firmware-sunxi-mainline/master/build/sun50i_h616/debug/bl31/sunxi_bl31_setup.o
 .debug_loc     0x0000000000011bd5      0xcfe /home/lodge/Allwinner/Orangepi-H616/external/cache/sources/arm-trusted-firmware-sunxi-mainline/master/build/sun50i_h616/debug/bl31/sunxi_cpu_ops.o
 .debug_loc     0x00000000000128d3      0x157 /home/lodge/Allwinner/Orangepi-H616/external/cache/sources/arm-trusted-firmware-sunxi-mainline/master/build/sun50i_h616/debug/bl31/sunxi_native_pm.o
 .debug_loc     0x0000000000012a2a      0x35c /home/lodge/Allwinner/Orangepi-H616/external/cache/sources/arm-trusted-firmware-sunxi-mainline/master/build/sun50i_h616/debug/bl31/sunxi_pm.o
 .debug_loc     0x0000000000012d86      0x164 /home/lodge/Allwinner/Orangepi-H616/external/cache/sources/arm-trusted-firmware-sunxi-mainline/master/build/sun50i_h616/debug/bl31/sunxi_security.o
 .debug_loc     0x0000000000012eea       0xb4 /home/lodge/Allwinner/Orangepi-H616/external/cache/sources/arm-trusted-firmware-sunxi-mainline/master/build/sun50i_h616/debug/bl31/sunxi_topology.o
 .debug_loc     0x0000000000012f9e      0x1fd /home/lodge/Allwinner/Orangepi-H616/external/cache/sources/arm-trusted-firmware-sunxi-mainline/master/build/sun50i_h616/debug/bl31/prepare_dtb.o
 .debug_loc     0x000000000001319b      0x449 /home/lodge/Allwinner/Orangepi-H616/external/cache/sources/arm-trusted-firmware-sunxi-mainline/master/build/sun50i_h616/debug/bl31/sunxi_power.o
 .debug_loc     0x00000000000135e4      0x8d6 /home/lodge/Allwinner/Orangepi-H616/external/cache/sources/arm-trusted-firmware-sunxi-mainline/master/build/sun50i_h616/debug/bl31/plat_gicv2.o
 .debug_loc     0x0000000000013eba      0x2b0 /home/lodge/Allwinner/Orangepi-H616/external/cache/sources/arm-trusted-firmware-sunxi-mainline/master/build/sun50i_h616/debug/bl31/plat_psci_common.o
 .debug_loc     0x000000000001416a      0xe59 /home/lodge/Allwinner/Orangepi-H616/external/cache/sources/arm-trusted-firmware-sunxi-mainline/master/build/sun50i_h616/debug/bl31/arm_arch_svc_setup.o
 .debug_loc     0x0000000000014fc3      0x48f /home/lodge/Allwinner/Orangepi-H616/external/cache/sources/arm-trusted-firmware-sunxi-mainline/master/build/sun50i_h616/debug/bl31/std_svc_setup.o
 .debug_loc     0x0000000000015452      0x5e7 /home/lodge/Allwinner/Orangepi-H616/external/cache/sources/arm-trusted-firmware-sunxi-mainline/master/build/sun50i_h616/debug/bl31/bl_common.o
 .debug_loc     0x0000000000015a39      0x265 /home/lodge/Allwinner/Orangepi-H616/external/cache/sources/arm-trusted-firmware-sunxi-mainline/master/build/sun50i_h616/debug/bl31/tf_log.o
 .debug_loc     0x0000000000015c9e      0x555 /home/lodge/Allwinner/Orangepi-H616/external/cache/sources/arm-trusted-firmware-sunxi-mainline/master/build/sun50i_h616/debug/bl31/multi_console.o
 .debug_loc     0x00000000000161f3      0x2db /home/lodge/Allwinner/Orangepi-H616/external/cache/sources/arm-trusted-firmware-sunxi-mainline/master/build/sun50i_h616/debug/bl31/plat_bl_common.o
 .debug_loc     0x00000000000164ce       0xd6 /home/lodge/Allwinner/Orangepi-H616/external/cache/sources/arm-trusted-firmware-sunxi-mainline/master/build/sun50i_h616/debug/bl31/plat_log_common.o
 .debug_loc     0x00000000000165a4      0x24b /home/lodge/Allwinner/Orangepi-H616/external/cache/sources/arm-trusted-firmware-sunxi-mainline/master/build/sun50i_h616/debug/bl31/plat_common.o
 .debug_loc     0x00000000000167ef      0xc6e /home/lodge/Allwinner/Orangepi-H616/external/cache/sources/arm-trusted-firmware-sunxi-mainline/master/build/sun50i_h616/debug/bl31/xlat_tables_arch.o
 .debug_loc     0x000000000001745d      0x6ef /home/lodge/Allwinner/Orangepi-H616/external/cache/sources/arm-trusted-firmware-sunxi-mainline/master/build/sun50i_h616/debug/bl31/xlat_tables_context.o
 .debug_loc     0x0000000000017b4c     0x1d14 /home/lodge/Allwinner/Orangepi-H616/external/cache/sources/arm-trusted-firmware-sunxi-mainline/master/build/sun50i_h616/debug/bl31/xlat_tables_core.o
 .debug_loc     0x0000000000019860     0x11fb /home/lodge/Allwinner/Orangepi-H616/external/cache/sources/arm-trusted-firmware-sunxi-mainline/master/build/sun50i_h616/debug/bl31/xlat_tables_utils.o
 .debug_loc     0x000000000001aa5b      0xb2e /home/lodge/Allwinner/Orangepi-H616/external/cache/sources/arm-trusted-firmware-sunxi-mainline/master/build/sun50i_h616/debug/bl31/sunxi_common.o
 .debug_loc     0x000000000001b589     0x124c /home/lodge/Allwinner/Orangepi-H616/external/cache/sources/arm-trusted-firmware-sunxi-mainline/master/build/sun50i_h616/debug/lib/libfdt.a(fdt.o)
 .debug_loc     0x000000000001c7d5      0xa3e /home/lodge/Allwinner/Orangepi-H616/external/cache/sources/arm-trusted-firmware-sunxi-mainline/master/build/sun50i_h616/debug/lib/libfdt.a(fdt_addresses.o)
 .debug_loc     0x000000000001d213     0x4519 /home/lodge/Allwinner/Orangepi-H616/external/cache/sources/arm-trusted-firmware-sunxi-mainline/master/build/sun50i_h616/debug/lib/libfdt.a(fdt_ro.o)
 .debug_loc     0x000000000002172c     0x3fc5 /home/lodge/Allwinner/Orangepi-H616/external/cache/sources/arm-trusted-firmware-sunxi-mainline/master/build/sun50i_h616/debug/lib/libfdt.a(fdt_rw.o)
 .debug_loc     0x00000000000256f1       0xa4 /home/lodge/Allwinner/Orangepi-H616/external/cache/sources/arm-trusted-firmware-sunxi-mainline/master/build/sun50i_h616/debug/lib/libc.a(assert.o)
 .debug_loc     0x0000000000025795      0x10b /home/lodge/Allwinner/Orangepi-H616/external/cache/sources/arm-trusted-firmware-sunxi-mainline/master/build/sun50i_h616/debug/lib/libc.a(memchr.o)
 .debug_loc     0x00000000000258a0      0x29e /home/lodge/Allwinner/Orangepi-H616/external/cache/sources/arm-trusted-firmware-sunxi-mainline/master/build/sun50i_h616/debug/lib/libc.a(memcmp.o)
 .debug_loc     0x0000000000025b3e      0x15e /home/lodge/Allwinner/Orangepi-H616/external/cache/sources/arm-trusted-firmware-sunxi-mainline/master/build/sun50i_h616/debug/lib/libc.a(memcpy.o)
 .debug_loc     0x0000000000025c9c      0x1ff /home/lodge/Allwinner/Orangepi-H616/external/cache/sources/arm-trusted-firmware-sunxi-mainline/master/build/sun50i_h616/debug/lib/libc.a(memmove.o)
 .debug_loc     0x0000000000025e9b      0x3a0 /home/lodge/Allwinner/Orangepi-H616/external/cache/sources/arm-trusted-firmware-sunxi-mainline/master/build/sun50i_h616/debug/lib/libc.a(memset.o)
 .debug_loc     0x000000000002623b     0x142a /home/lodge/Allwinner/Orangepi-H616/external/cache/sources/arm-trusted-firmware-sunxi-mainline/master/build/sun50i_h616/debug/lib/libc.a(printf.o)
 .debug_loc     0x0000000000027665       0x77 /home/lodge/Allwinner/Orangepi-H616/external/cache/sources/arm-trusted-firmware-sunxi-mainline/master/build/sun50i_h616/debug/lib/libc.a(putchar.o)
 .debug_loc     0x00000000000276dc      0x13b /home/lodge/Allwinner/Orangepi-H616/external/cache/sources/arm-trusted-firmware-sunxi-mainline/master/build/sun50i_h616/debug/lib/libc.a(strcmp.o)
 .debug_loc     0x0000000000027817       0x8c /home/lodge/Allwinner/Orangepi-H616/external/cache/sources/arm-trusted-firmware-sunxi-mainline/master/build/sun50i_h616/debug/lib/libc.a(strlen.o)
 .debug_loc     0x00000000000278a3      0x1ae /home/lodge/Allwinner/Orangepi-H616/external/cache/sources/arm-trusted-firmware-sunxi-mainline/master/build/sun50i_h616/debug/lib/libc.a(strncmp.o)
 .debug_loc     0x0000000000027a51       0xd7 /home/lodge/Allwinner/Orangepi-H616/external/cache/sources/arm-trusted-firmware-sunxi-mainline/master/build/sun50i_h616/debug/lib/libc.a(strrchr.o)

.debug_ranges   0x0000000000000000     0x5f10
 .debug_ranges  0x0000000000000000       0x60 /home/lodge/Allwinner/Orangepi-H616/external/cache/sources/arm-trusted-firmware-sunxi-mainline/master/build/sun50i_h616/debug/bl31/bl31_context_mgmt.o
 .debug_ranges  0x0000000000000060      0x130 /home/lodge/Allwinner/Orangepi-H616/external/cache/sources/arm-trusted-firmware-sunxi-mainline/master/build/sun50i_h616/debug/bl31/bl31_main.o
 .debug_ranges  0x0000000000000190       0xf0 /home/lodge/Allwinner/Orangepi-H616/external/cache/sources/arm-trusted-firmware-sunxi-mainline/master/build/sun50i_h616/debug/bl31/interrupt_mgmt.o
 .debug_ranges  0x0000000000000280      0x190 /home/lodge/Allwinner/Orangepi-H616/external/cache/sources/arm-trusted-firmware-sunxi-mainline/master/build/sun50i_h616/debug/bl31/fdt_fixup.o
 .debug_ranges  0x0000000000000410      0x180 /home/lodge/Allwinner/Orangepi-H616/external/cache/sources/arm-trusted-firmware-sunxi-mainline/master/build/sun50i_h616/debug/bl31/runtime_svc.o
 .debug_ranges  0x0000000000000590      0x210 /home/lodge/Allwinner/Orangepi-H616/external/cache/sources/arm-trusted-firmware-sunxi-mainline/master/build/sun50i_h616/debug/bl31/common.o
 .debug_ranges  0x00000000000007a0      0x260 /home/lodge/Allwinner/Orangepi-H616/external/cache/sources/arm-trusted-firmware-sunxi-mainline/master/build/sun50i_h616/debug/bl31/sunxi_rsb.o
 .debug_ranges  0x0000000000000a00      0x5d0 /home/lodge/Allwinner/Orangepi-H616/external/cache/sources/arm-trusted-firmware-sunxi-mainline/master/build/sun50i_h616/debug/bl31/gicdv2_helpers.o
 .debug_ranges  0x0000000000000fd0      0x210 /home/lodge/Allwinner/Orangepi-H616/external/cache/sources/arm-trusted-firmware-sunxi-mainline/master/build/sun50i_h616/debug/bl31/gicv2_helpers.o
 .debug_ranges  0x00000000000011e0      0x510 /home/lodge/Allwinner/Orangepi-H616/external/cache/sources/arm-trusted-firmware-sunxi-mainline/master/build/sun50i_h616/debug/bl31/gicv2_main.o
 .debug_ranges  0x00000000000016f0       0x80 /home/lodge/Allwinner/Orangepi-H616/external/cache/sources/arm-trusted-firmware-sunxi-mainline/master/build/sun50i_h616/debug/bl31/delay_timer.o
 .debug_ranges  0x0000000000001770       0x40 /home/lodge/Allwinner/Orangepi-H616/external/cache/sources/arm-trusted-firmware-sunxi-mainline/master/build/sun50i_h616/debug/bl31/generic_delay_timer.o
 .debug_ranges  0x00000000000017b0       0x30 /home/lodge/Allwinner/Orangepi-H616/external/cache/sources/arm-trusted-firmware-sunxi-mainline/master/build/sun50i_h616/debug/bl31/errata_report.o
 .debug_ranges  0x00000000000017e0      0x2b0 /home/lodge/Allwinner/Orangepi-H616/external/cache/sources/arm-trusted-firmware-sunxi-mainline/master/build/sun50i_h616/debug/bl31/context_mgmt.o
 .debug_ranges  0x0000000000001a90       0xe0 /home/lodge/Allwinner/Orangepi-H616/external/cache/sources/arm-trusted-firmware-sunxi-mainline/master/build/sun50i_h616/debug/bl31/bakery_lock_coherent.o
 .debug_ranges  0x0000000000001b70      0x490 /home/lodge/Allwinner/Orangepi-H616/external/cache/sources/arm-trusted-firmware-sunxi-mainline/master/build/sun50i_h616/debug/bl31/psci_common.o
 .debug_ranges  0x0000000000002000      0x210 /home/lodge/Allwinner/Orangepi-H616/external/cache/sources/arm-trusted-firmware-sunxi-mainline/master/build/sun50i_h616/debug/bl31/psci_main.o
 .debug_ranges  0x0000000000002210       0x30 /home/lodge/Allwinner/Orangepi-H616/external/cache/sources/arm-trusted-firmware-sunxi-mainline/master/build/sun50i_h616/debug/bl31/psci_mem_protect.o
 .debug_ranges  0x0000000000002240       0x80 /home/lodge/Allwinner/Orangepi-H616/external/cache/sources/arm-trusted-firmware-sunxi-mainline/master/build/sun50i_h616/debug/bl31/psci_off.o
 .debug_ranges  0x00000000000022c0       0xd0 /home/lodge/Allwinner/Orangepi-H616/external/cache/sources/arm-trusted-firmware-sunxi-mainline/master/build/sun50i_h616/debug/bl31/psci_on.o
 .debug_ranges  0x0000000000002390      0x1f0 /home/lodge/Allwinner/Orangepi-H616/external/cache/sources/arm-trusted-firmware-sunxi-mainline/master/build/sun50i_h616/debug/bl31/psci_setup.o
 .debug_ranges  0x0000000000002580      0x210 /home/lodge/Allwinner/Orangepi-H616/external/cache/sources/arm-trusted-firmware-sunxi-mainline/master/build/sun50i_h616/debug/bl31/psci_suspend.o
 .debug_ranges  0x0000000000002790       0x40 /home/lodge/Allwinner/Orangepi-H616/external/cache/sources/arm-trusted-firmware-sunxi-mainline/master/build/sun50i_h616/debug/bl31/psci_system_off.o
 .debug_ranges  0x00000000000027d0       0xe0 /home/lodge/Allwinner/Orangepi-H616/external/cache/sources/arm-trusted-firmware-sunxi-mainline/master/build/sun50i_h616/debug/bl31/sunxi_bl31_setup.o
 .debug_ranges  0x00000000000028b0      0x6b0 /home/lodge/Allwinner/Orangepi-H616/external/cache/sources/arm-trusted-firmware-sunxi-mainline/master/build/sun50i_h616/debug/bl31/sunxi_cpu_ops.o
 .debug_ranges  0x0000000000002f60       0x70 /home/lodge/Allwinner/Orangepi-H616/external/cache/sources/arm-trusted-firmware-sunxi-mainline/master/build/sun50i_h616/debug/bl31/sunxi_native_pm.o
 .debug_ranges  0x0000000000002fd0       0xf0 /home/lodge/Allwinner/Orangepi-H616/external/cache/sources/arm-trusted-firmware-sunxi-mainline/master/build/sun50i_h616/debug/bl31/sunxi_pm.o
 .debug_ranges  0x00000000000030c0       0x50 /home/lodge/Allwinner/Orangepi-H616/external/cache/sources/arm-trusted-firmware-sunxi-mainline/master/build/sun50i_h616/debug/bl31/sunxi_security.o
 .debug_ranges  0x0000000000003110       0x30 /home/lodge/Allwinner/Orangepi-H616/external/cache/sources/arm-trusted-firmware-sunxi-mainline/master/build/sun50i_h616/debug/bl31/sunxi_topology.o
 .debug_ranges  0x0000000000003140       0x20 /home/lodge/Allwinner/Orangepi-H616/external/cache/sources/arm-trusted-firmware-sunxi-mainline/master/build/sun50i_h616/debug/bl31/prepare_dtb.o
 .debug_ranges  0x0000000000003160       0xa0 /home/lodge/Allwinner/Orangepi-H616/external/cache/sources/arm-trusted-firmware-sunxi-mainline/master/build/sun50i_h616/debug/bl31/sunxi_power.o
 .debug_ranges  0x0000000000003200      0x170 /home/lodge/Allwinner/Orangepi-H616/external/cache/sources/arm-trusted-firmware-sunxi-mainline/master/build/sun50i_h616/debug/bl31/plat_gicv2.o
 .debug_ranges  0x0000000000003370       0x20 /home/lodge/Allwinner/Orangepi-H616/external/cache/sources/arm-trusted-firmware-sunxi-mainline/master/build/sun50i_h616/debug/bl31/plat_psci_common.o
 .debug_ranges  0x0000000000003390       0x50 /home/lodge/Allwinner/Orangepi-H616/external/cache/sources/arm-trusted-firmware-sunxi-mainline/master/build/sun50i_h616/debug/bl31/arm_arch_svc_setup.o
 .debug_ranges  0x00000000000033e0       0xc0 /home/lodge/Allwinner/Orangepi-H616/external/cache/sources/arm-trusted-firmware-sunxi-mainline/master/build/sun50i_h616/debug/bl31/std_svc_setup.o
 .debug_ranges  0x00000000000034a0       0xf0 /home/lodge/Allwinner/Orangepi-H616/external/cache/sources/arm-trusted-firmware-sunxi-mainline/master/build/sun50i_h616/debug/bl31/bl_common.o
 .debug_ranges  0x0000000000003590       0x40 /home/lodge/Allwinner/Orangepi-H616/external/cache/sources/arm-trusted-firmware-sunxi-mainline/master/build/sun50i_h616/debug/bl31/tf_log.o
 .debug_ranges  0x00000000000035d0      0x140 /home/lodge/Allwinner/Orangepi-H616/external/cache/sources/arm-trusted-firmware-sunxi-mainline/master/build/sun50i_h616/debug/bl31/multi_console.o
 .debug_ranges  0x0000000000003710       0x90 /home/lodge/Allwinner/Orangepi-H616/external/cache/sources/arm-trusted-firmware-sunxi-mainline/master/build/sun50i_h616/debug/bl31/plat_bl_common.o
 .debug_ranges  0x00000000000037a0       0x20 /home/lodge/Allwinner/Orangepi-H616/external/cache/sources/arm-trusted-firmware-sunxi-mainline/master/build/sun50i_h616/debug/bl31/plat_log_common.o
 .debug_ranges  0x00000000000037c0       0xb0 /home/lodge/Allwinner/Orangepi-H616/external/cache/sources/arm-trusted-firmware-sunxi-mainline/master/build/sun50i_h616/debug/bl31/plat_common.o
 .debug_ranges  0x0000000000003870      0x270 /home/lodge/Allwinner/Orangepi-H616/external/cache/sources/arm-trusted-firmware-sunxi-mainline/master/build/sun50i_h616/debug/bl31/xlat_tables_arch.o
 .debug_ranges  0x0000000000003ae0       0xc0 /home/lodge/Allwinner/Orangepi-H616/external/cache/sources/arm-trusted-firmware-sunxi-mainline/master/build/sun50i_h616/debug/bl31/xlat_tables_context.o
 .debug_ranges  0x0000000000003ba0      0x440 /home/lodge/Allwinner/Orangepi-H616/external/cache/sources/arm-trusted-firmware-sunxi-mainline/master/build/sun50i_h616/debug/bl31/xlat_tables_core.o
 .debug_ranges  0x0000000000003fe0      0x1f0 /home/lodge/Allwinner/Orangepi-H616/external/cache/sources/arm-trusted-firmware-sunxi-mainline/master/build/sun50i_h616/debug/bl31/xlat_tables_utils.o
 .debug_ranges  0x00000000000041d0      0x1a0 /home/lodge/Allwinner/Orangepi-H616/external/cache/sources/arm-trusted-firmware-sunxi-mainline/master/build/sun50i_h616/debug/bl31/sunxi_common.o
 .debug_ranges  0x0000000000004370       0x40 /home/lodge/Allwinner/Orangepi-H616/external/cache/sources/arm-trusted-firmware-sunxi-mainline/master/build/sun50i_h616/debug/bl31/bl31_entrypoint.o
 .debug_ranges  0x00000000000043b0       0xa0 /home/lodge/Allwinner/Orangepi-H616/external/cache/sources/arm-trusted-firmware-sunxi-mainline/master/build/sun50i_h616/debug/bl31/crash_reporting.o
 .debug_ranges  0x0000000000004450       0x80 /home/lodge/Allwinner/Orangepi-H616/external/cache/sources/arm-trusted-firmware-sunxi-mainline/master/build/sun50i_h616/debug/bl31/ea_delegate.o
 .debug_ranges  0x00000000000044d0       0x40 /home/lodge/Allwinner/Orangepi-H616/external/cache/sources/arm-trusted-firmware-sunxi-mainline/master/build/sun50i_h616/debug/bl31/runtime_exceptions.o
 .debug_ranges  0x0000000000004510      0x150 /home/lodge/Allwinner/Orangepi-H616/external/cache/sources/arm-trusted-firmware-sunxi-mainline/master/build/sun50i_h616/debug/bl31/cortex_a53.o
 .debug_ranges  0x0000000000004660       0xf0 /home/lodge/Allwinner/Orangepi-H616/external/cache/sources/arm-trusted-firmware-sunxi-mainline/master/build/sun50i_h616/debug/bl31/cpu_helpers.o
 .debug_ranges  0x0000000000004750       0x80 /home/lodge/Allwinner/Orangepi-H616/external/cache/sources/arm-trusted-firmware-sunxi-mainline/master/build/sun50i_h616/debug/bl31/context.o
 .debug_ranges  0x00000000000047d0       0x40 /home/lodge/Allwinner/Orangepi-H616/external/cache/sources/arm-trusted-firmware-sunxi-mainline/master/build/sun50i_h616/debug/bl31/cpu_data.o
 .debug_ranges  0x0000000000004810       0x40 /home/lodge/Allwinner/Orangepi-H616/external/cache/sources/arm-trusted-firmware-sunxi-mainline/master/build/sun50i_h616/debug/bl31/spinlock.o
 .debug_ranges  0x0000000000004850       0x50 /home/lodge/Allwinner/Orangepi-H616/external/cache/sources/arm-trusted-firmware-sunxi-mainline/master/build/sun50i_h616/debug/bl31/psci_helpers.o
 .debug_ranges  0x00000000000048a0       0x40 /home/lodge/Allwinner/Orangepi-H616/external/cache/sources/arm-trusted-firmware-sunxi-mainline/master/build/sun50i_h616/debug/bl31/platform_mp_stack.o
 .debug_ranges  0x00000000000048e0       0x70 /home/lodge/Allwinner/Orangepi-H616/external/cache/sources/arm-trusted-firmware-sunxi-mainline/master/build/sun50i_h616/debug/bl31/debug.o
 .debug_ranges  0x0000000000004950       0xc0 /home/lodge/Allwinner/Orangepi-H616/external/cache/sources/arm-trusted-firmware-sunxi-mainline/master/build/sun50i_h616/debug/bl31/cache_helpers.o
 .debug_ranges  0x0000000000004a10       0xc0 /home/lodge/Allwinner/Orangepi-H616/external/cache/sources/arm-trusted-firmware-sunxi-mainline/master/build/sun50i_h616/debug/bl31/misc_helpers.o
 .debug_ranges  0x0000000000004ad0       0xc0 /home/lodge/Allwinner/Orangepi-H616/external/cache/sources/arm-trusted-firmware-sunxi-mainline/master/build/sun50i_h616/debug/bl31/platform_helpers.o
 .debug_ranges  0x0000000000004b90       0xa0 /home/lodge/Allwinner/Orangepi-H616/external/cache/sources/arm-trusted-firmware-sunxi-mainline/master/build/sun50i_h616/debug/bl31/16550_console.o
 .debug_ranges  0x0000000000004c30       0x50 /home/lodge/Allwinner/Orangepi-H616/external/cache/sources/arm-trusted-firmware-sunxi-mainline/master/build/sun50i_h616/debug/bl31/enable_mmu.o
 .debug_ranges  0x0000000000004c80       0x80 /home/lodge/Allwinner/Orangepi-H616/external/cache/sources/arm-trusted-firmware-sunxi-mainline/master/build/sun50i_h616/debug/bl31/plat_helpers.o
 .debug_ranges  0x0000000000004d00      0x180 /home/lodge/Allwinner/Orangepi-H616/external/cache/sources/arm-trusted-firmware-sunxi-mainline/master/build/sun50i_h616/debug/lib/libfdt.a(fdt.o)
 .debug_ranges  0x0000000000004e80       0x50 /home/lodge/Allwinner/Orangepi-H616/external/cache/sources/arm-trusted-firmware-sunxi-mainline/master/build/sun50i_h616/debug/lib/libfdt.a(fdt_addresses.o)
 .debug_ranges  0x0000000000004ed0      0x610 /home/lodge/Allwinner/Orangepi-H616/external/cache/sources/arm-trusted-firmware-sunxi-mainline/master/build/sun50i_h616/debug/lib/libfdt.a(fdt_ro.o)
 .debug_ranges  0x00000000000054e0      0x7e0 /home/lodge/Allwinner/Orangepi-H616/external/cache/sources/arm-trusted-firmware-sunxi-mainline/master/build/sun50i_h616/debug/lib/libfdt.a(fdt_rw.o)
 .debug_ranges  0x0000000000005cc0       0x20 /home/lodge/Allwinner/Orangepi-H616/external/cache/sources/arm-trusted-firmware-sunxi-mainline/master/build/sun50i_h616/debug/lib/libc.a(assert.o)
 .debug_ranges  0x0000000000005ce0       0x20 /home/lodge/Allwinner/Orangepi-H616/external/cache/sources/arm-trusted-firmware-sunxi-mainline/master/build/sun50i_h616/debug/lib/libc.a(memchr.o)
 .debug_ranges  0x0000000000005d00       0x20 /home/lodge/Allwinner/Orangepi-H616/external/cache/sources/arm-trusted-firmware-sunxi-mainline/master/build/sun50i_h616/debug/lib/libc.a(memcmp.o)
 .debug_ranges  0x0000000000005d20       0x20 /home/lodge/Allwinner/Orangepi-H616/external/cache/sources/arm-trusted-firmware-sunxi-mainline/master/build/sun50i_h616/debug/lib/libc.a(memcpy.o)
 .debug_ranges  0x0000000000005d40       0x50 /home/lodge/Allwinner/Orangepi-H616/external/cache/sources/arm-trusted-firmware-sunxi-mainline/master/build/sun50i_h616/debug/lib/libc.a(memmove.o)
 .debug_ranges  0x0000000000005d90       0x20 /home/lodge/Allwinner/Orangepi-H616/external/cache/sources/arm-trusted-firmware-sunxi-mainline/master/build/sun50i_h616/debug/lib/libc.a(memset.o)
 .debug_ranges  0x0000000000005db0       0xc0 /home/lodge/Allwinner/Orangepi-H616/external/cache/sources/arm-trusted-firmware-sunxi-mainline/master/build/sun50i_h616/debug/lib/libc.a(printf.o)
 .debug_ranges  0x0000000000005e70       0x20 /home/lodge/Allwinner/Orangepi-H616/external/cache/sources/arm-trusted-firmware-sunxi-mainline/master/build/sun50i_h616/debug/lib/libc.a(putchar.o)
 .debug_ranges  0x0000000000005e90       0x20 /home/lodge/Allwinner/Orangepi-H616/external/cache/sources/arm-trusted-firmware-sunxi-mainline/master/build/sun50i_h616/debug/lib/libc.a(strcmp.o)
 .debug_ranges  0x0000000000005eb0       0x20 /home/lodge/Allwinner/Orangepi-H616/external/cache/sources/arm-trusted-firmware-sunxi-mainline/master/build/sun50i_h616/debug/lib/libc.a(strlen.o)
 .debug_ranges  0x0000000000005ed0       0x20 /home/lodge/Allwinner/Orangepi-H616/external/cache/sources/arm-trusted-firmware-sunxi-mainline/master/build/sun50i_h616/debug/lib/libc.a(strncmp.o)
 .debug_ranges  0x0000000000005ef0       0x20 /home/lodge/Allwinner/Orangepi-H616/external/cache/sources/arm-trusted-firmware-sunxi-mainline/master/build/sun50i_h616/debug/lib/libc.a(strrchr.o)

.debug_frame    0x0000000000000000      0xd80
 .debug_frame   0x0000000000000000       0x40 /home/lodge/Allwinner/Orangepi-H616/external/cache/sources/arm-trusted-firmware-sunxi-mainline/master/build/sun50i_h616/debug/bl31/bl31_entrypoint.o
 .debug_frame   0x0000000000000040       0xd0 /home/lodge/Allwinner/Orangepi-H616/external/cache/sources/arm-trusted-firmware-sunxi-mainline/master/build/sun50i_h616/debug/bl31/crash_reporting.o
 .debug_frame   0x0000000000000110       0xa0 /home/lodge/Allwinner/Orangepi-H616/external/cache/sources/arm-trusted-firmware-sunxi-mainline/master/build/sun50i_h616/debug/bl31/ea_delegate.o
 .debug_frame   0x00000000000001b0      0x1a8 /home/lodge/Allwinner/Orangepi-H616/external/cache/sources/arm-trusted-firmware-sunxi-mainline/master/build/sun50i_h616/debug/bl31/runtime_exceptions.o
 .debug_frame   0x0000000000000358      0x1d8 /home/lodge/Allwinner/Orangepi-H616/external/cache/sources/arm-trusted-firmware-sunxi-mainline/master/build/sun50i_h616/debug/bl31/cortex_a53.o
 .debug_frame   0x0000000000000530      0x148 /home/lodge/Allwinner/Orangepi-H616/external/cache/sources/arm-trusted-firmware-sunxi-mainline/master/build/sun50i_h616/debug/bl31/cpu_helpers.o
 .debug_frame   0x0000000000000678       0xa0 /home/lodge/Allwinner/Orangepi-H616/external/cache/sources/arm-trusted-firmware-sunxi-mainline/master/build/sun50i_h616/debug/bl31/context.o
 .debug_frame   0x0000000000000718       0x40 /home/lodge/Allwinner/Orangepi-H616/external/cache/sources/arm-trusted-firmware-sunxi-mainline/master/build/sun50i_h616/debug/bl31/cpu_data.o
 .debug_frame   0x0000000000000758       0x40 /home/lodge/Allwinner/Orangepi-H616/external/cache/sources/arm-trusted-firmware-sunxi-mainline/master/build/sun50i_h616/debug/bl31/spinlock.o
 .debug_frame   0x0000000000000798       0x58 /home/lodge/Allwinner/Orangepi-H616/external/cache/sources/arm-trusted-firmware-sunxi-mainline/master/build/sun50i_h616/debug/bl31/psci_helpers.o
 .debug_frame   0x00000000000007f0       0x40 /home/lodge/Allwinner/Orangepi-H616/external/cache/sources/arm-trusted-firmware-sunxi-mainline/master/build/sun50i_h616/debug/bl31/platform_mp_stack.o
 .debug_frame   0x0000000000000830       0x88 /home/lodge/Allwinner/Orangepi-H616/external/cache/sources/arm-trusted-firmware-sunxi-mainline/master/build/sun50i_h616/debug/bl31/debug.o
 .debug_frame   0x00000000000008b8      0x100 /home/lodge/Allwinner/Orangepi-H616/external/cache/sources/arm-trusted-firmware-sunxi-mainline/master/build/sun50i_h616/debug/bl31/cache_helpers.o
 .debug_frame   0x00000000000009b8      0x100 /home/lodge/Allwinner/Orangepi-H616/external/cache/sources/arm-trusted-firmware-sunxi-mainline/master/build/sun50i_h616/debug/bl31/misc_helpers.o
 .debug_frame   0x0000000000000ab8      0x100 /home/lodge/Allwinner/Orangepi-H616/external/cache/sources/arm-trusted-firmware-sunxi-mainline/master/build/sun50i_h616/debug/bl31/platform_helpers.o
 .debug_frame   0x0000000000000bb8       0xd0 /home/lodge/Allwinner/Orangepi-H616/external/cache/sources/arm-trusted-firmware-sunxi-mainline/master/build/sun50i_h616/debug/bl31/16550_console.o
 .debug_frame   0x0000000000000c88       0x58 /home/lodge/Allwinner/Orangepi-H616/external/cache/sources/arm-trusted-firmware-sunxi-mainline/master/build/sun50i_h616/debug/bl31/enable_mmu.o
 .debug_frame   0x0000000000000ce0       0xa0 /home/lodge/Allwinner/Orangepi-H616/external/cache/sources/arm-trusted-firmware-sunxi-mainline/master/build/sun50i_h616/debug/bl31/plat_helpers.o
